
Optional file libmchp_peripheral.a not found

Optional file libmchp_peripheral_32MX795F512L.a not found
Archive member included because of file (symbol)

c:/program files (x86)/microchip/xc32/v1.44/bin/bin/../../lib/gcc/pic32mx/4.8.3/../../../../pic32mx/lib\libpic32.a(memcmp.o)
                              build/default/production/_ext/449926602/ble_manager.o (memcmp)
c:/program files (x86)/microchip/xc32/v1.44/bin/bin/../../lib/gcc/pic32mx/4.8.3/../../../../pic32mx/lib\libpic32.a(memcpy.o)
                              build/default/production/_ext/449926602/ble_api.o (memcpy)
c:/program files (x86)/microchip/xc32/v1.44/bin/bin/../../lib/gcc/pic32mx/4.8.3/../../../../pic32mx/lib\libpic32.a(memset.o)
                              build/default/production/_ext/449926602/ble_manager.o (memset)
c:/program files (x86)/microchip/xc32/v1.44/bin/bin/../../lib/gcc/pic32mx/4.8.3/../../../../pic32mx/lib\libpic32.a(strlen.o)
                              build/default/production/_ext/1472/main.o (strlen)
c:/program files (x86)/microchip/xc32/v1.44/bin/bin/../../lib/gcc/pic32mx/4.8.3/../../../../pic32mx/lib\libpic32.a(default-bootstrap-exception-handler.o)
                              c:/program files (x86)/microchip/xc32/v1.44/bin/bin/../../lib/gcc/pic32mx/4.8.3/../../../../pic32mx/lib/./proc/32MX795F512L/crt0_mips32r2.o (_bootstrap_exception_handler)
c:/program files (x86)/microchip/xc32/v1.44/bin/bin/../../lib/gcc/pic32mx/4.8.3/../../../../pic32mx/lib\libpic32.a(default-on-reset.o)
                              c:/program files (x86)/microchip/xc32/v1.44/bin/bin/../../lib/gcc/pic32mx/4.8.3/../../../../pic32mx/lib/./proc/32MX795F512L/crt0_mips32r2.o (_on_reset)
c:/program files (x86)/microchip/xc32/v1.44/bin/bin/../../lib/gcc/pic32mx/4.8.3/../../../../pic32mx/lib\libpic32.a(default-on-bootstrap.o)
                              c:/program files (x86)/microchip/xc32/v1.44/bin/bin/../../lib/gcc/pic32mx/4.8.3/../../../../pic32mx/lib/./proc/32MX795F512L/crt0_mips32r2.o (_on_bootstrap)
c:/program files (x86)/microchip/xc32/v1.44/bin/bin/../../lib/gcc/pic32mx/4.8.3/../../../../pic32mx/lib\libpic32.a(default-nmi-handler.o)
                              c:/program files (x86)/microchip/xc32/v1.44/bin/bin/../../lib/gcc/pic32mx/4.8.3/../../../../pic32mx/lib/./proc/32MX795F512L/crt0_mips32r2.o (_nmi_handler)
c:/program files (x86)/microchip/xc32/v1.44/bin/bin/../../lib/gcc/pic32mx/4.8.3/../../../../pic32mx/lib\libpic32.a(general-exception.o)
                              c:/program files (x86)/microchip/xc32/v1.44/bin/bin/../../lib/gcc/pic32mx/4.8.3/../../../../pic32mx/lib/./proc/32MX795F512L/crt0_mips32r2.o (_general_exception_context)
c:/program files (x86)/microchip/xc32/v1.44/bin/bin/../../lib/gcc/pic32mx/4.8.3/../../../../pic32mx/lib\libpic32.a(vector0.o)
                              c:/program files (x86)/microchip/xc32/v1.44/bin/bin/../../lib/gcc/pic32mx/4.8.3/../../../../pic32mx/lib/./proc/32MX795F512L\default_isr_vectors.o (__vector_dispatch_0)
c:/program files (x86)/microchip/xc32/v1.44/bin/bin/../../lib/gcc/pic32mx/4.8.3/../../../../pic32mx/lib\libpic32.a(vector1.o)
                              c:/program files (x86)/microchip/xc32/v1.44/bin/bin/../../lib/gcc/pic32mx/4.8.3/../../../../pic32mx/lib/./proc/32MX795F512L\default_isr_vectors.o (__vector_dispatch_1)
c:/program files (x86)/microchip/xc32/v1.44/bin/bin/../../lib/gcc/pic32mx/4.8.3/../../../../pic32mx/lib\libpic32.a(vector2.o)
                              c:/program files (x86)/microchip/xc32/v1.44/bin/bin/../../lib/gcc/pic32mx/4.8.3/../../../../pic32mx/lib/./proc/32MX795F512L\default_isr_vectors.o (__vector_dispatch_2)
c:/program files (x86)/microchip/xc32/v1.44/bin/bin/../../lib/gcc/pic32mx/4.8.3/../../../../pic32mx/lib\libpic32.a(vector3.o)
                              c:/program files (x86)/microchip/xc32/v1.44/bin/bin/../../lib/gcc/pic32mx/4.8.3/../../../../pic32mx/lib/./proc/32MX795F512L\default_isr_vectors.o (__vector_dispatch_3)
c:/program files (x86)/microchip/xc32/v1.44/bin/bin/../../lib/gcc/pic32mx/4.8.3/../../../../pic32mx/lib\libpic32.a(vector5.o)
                              c:/program files (x86)/microchip/xc32/v1.44/bin/bin/../../lib/gcc/pic32mx/4.8.3/../../../../pic32mx/lib/./proc/32MX795F512L\default_isr_vectors.o (__vector_dispatch_5)
c:/program files (x86)/microchip/xc32/v1.44/bin/bin/../../lib/gcc/pic32mx/4.8.3/../../../../pic32mx/lib\libpic32.a(vector6.o)
                              c:/program files (x86)/microchip/xc32/v1.44/bin/bin/../../lib/gcc/pic32mx/4.8.3/../../../../pic32mx/lib/./proc/32MX795F512L\default_isr_vectors.o (__vector_dispatch_6)
c:/program files (x86)/microchip/xc32/v1.44/bin/bin/../../lib/gcc/pic32mx/4.8.3/../../../../pic32mx/lib\libpic32.a(vector7.o)
                              c:/program files (x86)/microchip/xc32/v1.44/bin/bin/../../lib/gcc/pic32mx/4.8.3/../../../../pic32mx/lib/./proc/32MX795F512L\default_isr_vectors.o (__vector_dispatch_7)
c:/program files (x86)/microchip/xc32/v1.44/bin/bin/../../lib/gcc/pic32mx/4.8.3/../../../../pic32mx/lib\libpic32.a(vector8.o)
                              c:/program files (x86)/microchip/xc32/v1.44/bin/bin/../../lib/gcc/pic32mx/4.8.3/../../../../pic32mx/lib/./proc/32MX795F512L\default_isr_vectors.o (__vector_dispatch_8)
c:/program files (x86)/microchip/xc32/v1.44/bin/bin/../../lib/gcc/pic32mx/4.8.3/../../../../pic32mx/lib\libpic32.a(vector9.o)
                              c:/program files (x86)/microchip/xc32/v1.44/bin/bin/../../lib/gcc/pic32mx/4.8.3/../../../../pic32mx/lib/./proc/32MX795F512L\default_isr_vectors.o (__vector_dispatch_9)
c:/program files (x86)/microchip/xc32/v1.44/bin/bin/../../lib/gcc/pic32mx/4.8.3/../../../../pic32mx/lib\libpic32.a(vector10.o)
                              c:/program files (x86)/microchip/xc32/v1.44/bin/bin/../../lib/gcc/pic32mx/4.8.3/../../../../pic32mx/lib/./proc/32MX795F512L\default_isr_vectors.o (__vector_dispatch_10)
c:/program files (x86)/microchip/xc32/v1.44/bin/bin/../../lib/gcc/pic32mx/4.8.3/../../../../pic32mx/lib\libpic32.a(vector11.o)
                              c:/program files (x86)/microchip/xc32/v1.44/bin/bin/../../lib/gcc/pic32mx/4.8.3/../../../../pic32mx/lib/./proc/32MX795F512L\default_isr_vectors.o (__vector_dispatch_11)
c:/program files (x86)/microchip/xc32/v1.44/bin/bin/../../lib/gcc/pic32mx/4.8.3/../../../../pic32mx/lib\libpic32.a(vector12.o)
                              c:/program files (x86)/microchip/xc32/v1.44/bin/bin/../../lib/gcc/pic32mx/4.8.3/../../../../pic32mx/lib/./proc/32MX795F512L\default_isr_vectors.o (__vector_dispatch_12)
c:/program files (x86)/microchip/xc32/v1.44/bin/bin/../../lib/gcc/pic32mx/4.8.3/../../../../pic32mx/lib\libpic32.a(vector13.o)
                              c:/program files (x86)/microchip/xc32/v1.44/bin/bin/../../lib/gcc/pic32mx/4.8.3/../../../../pic32mx/lib/./proc/32MX795F512L\default_isr_vectors.o (__vector_dispatch_13)
c:/program files (x86)/microchip/xc32/v1.44/bin/bin/../../lib/gcc/pic32mx/4.8.3/../../../../pic32mx/lib\libpic32.a(vector14.o)
                              c:/program files (x86)/microchip/xc32/v1.44/bin/bin/../../lib/gcc/pic32mx/4.8.3/../../../../pic32mx/lib/./proc/32MX795F512L\default_isr_vectors.o (__vector_dispatch_14)
c:/program files (x86)/microchip/xc32/v1.44/bin/bin/../../lib/gcc/pic32mx/4.8.3/../../../../pic32mx/lib\libpic32.a(vector15.o)
                              c:/program files (x86)/microchip/xc32/v1.44/bin/bin/../../lib/gcc/pic32mx/4.8.3/../../../../pic32mx/lib/./proc/32MX795F512L\default_isr_vectors.o (__vector_dispatch_15)
c:/program files (x86)/microchip/xc32/v1.44/bin/bin/../../lib/gcc/pic32mx/4.8.3/../../../../pic32mx/lib\libpic32.a(vector16.o)
                              c:/program files (x86)/microchip/xc32/v1.44/bin/bin/../../lib/gcc/pic32mx/4.8.3/../../../../pic32mx/lib/./proc/32MX795F512L\default_isr_vectors.o (__vector_dispatch_16)
c:/program files (x86)/microchip/xc32/v1.44/bin/bin/../../lib/gcc/pic32mx/4.8.3/../../../../pic32mx/lib\libpic32.a(vector17.o)
                              c:/program files (x86)/microchip/xc32/v1.44/bin/bin/../../lib/gcc/pic32mx/4.8.3/../../../../pic32mx/lib/./proc/32MX795F512L\default_isr_vectors.o (__vector_dispatch_17)
c:/program files (x86)/microchip/xc32/v1.44/bin/bin/../../lib/gcc/pic32mx/4.8.3/../../../../pic32mx/lib\libpic32.a(vector18.o)
                              c:/program files (x86)/microchip/xc32/v1.44/bin/bin/../../lib/gcc/pic32mx/4.8.3/../../../../pic32mx/lib/./proc/32MX795F512L\default_isr_vectors.o (__vector_dispatch_18)
c:/program files (x86)/microchip/xc32/v1.44/bin/bin/../../lib/gcc/pic32mx/4.8.3/../../../../pic32mx/lib\libpic32.a(vector19.o)
                              c:/program files (x86)/microchip/xc32/v1.44/bin/bin/../../lib/gcc/pic32mx/4.8.3/../../../../pic32mx/lib/./proc/32MX795F512L\default_isr_vectors.o (__vector_dispatch_19)
c:/program files (x86)/microchip/xc32/v1.44/bin/bin/../../lib/gcc/pic32mx/4.8.3/../../../../pic32mx/lib\libpic32.a(vector20.o)
                              c:/program files (x86)/microchip/xc32/v1.44/bin/bin/../../lib/gcc/pic32mx/4.8.3/../../../../pic32mx/lib/./proc/32MX795F512L\default_isr_vectors.o (__vector_dispatch_20)
c:/program files (x86)/microchip/xc32/v1.44/bin/bin/../../lib/gcc/pic32mx/4.8.3/../../../../pic32mx/lib\libpic32.a(vector21.o)
                              c:/program files (x86)/microchip/xc32/v1.44/bin/bin/../../lib/gcc/pic32mx/4.8.3/../../../../pic32mx/lib/./proc/32MX795F512L\default_isr_vectors.o (__vector_dispatch_21)
c:/program files (x86)/microchip/xc32/v1.44/bin/bin/../../lib/gcc/pic32mx/4.8.3/../../../../pic32mx/lib\libpic32.a(vector22.o)
                              c:/program files (x86)/microchip/xc32/v1.44/bin/bin/../../lib/gcc/pic32mx/4.8.3/../../../../pic32mx/lib/./proc/32MX795F512L\default_isr_vectors.o (__vector_dispatch_22)
c:/program files (x86)/microchip/xc32/v1.44/bin/bin/../../lib/gcc/pic32mx/4.8.3/../../../../pic32mx/lib\libpic32.a(vector23.o)
                              c:/program files (x86)/microchip/xc32/v1.44/bin/bin/../../lib/gcc/pic32mx/4.8.3/../../../../pic32mx/lib/./proc/32MX795F512L\default_isr_vectors.o (__vector_dispatch_23)
c:/program files (x86)/microchip/xc32/v1.44/bin/bin/../../lib/gcc/pic32mx/4.8.3/../../../../pic32mx/lib\libpic32.a(vector25.o)
                              c:/program files (x86)/microchip/xc32/v1.44/bin/bin/../../lib/gcc/pic32mx/4.8.3/../../../../pic32mx/lib/./proc/32MX795F512L\default_isr_vectors.o (__vector_dispatch_25)
c:/program files (x86)/microchip/xc32/v1.44/bin/bin/../../lib/gcc/pic32mx/4.8.3/../../../../pic32mx/lib\libpic32.a(vector26.o)
                              c:/program files (x86)/microchip/xc32/v1.44/bin/bin/../../lib/gcc/pic32mx/4.8.3/../../../../pic32mx/lib/./proc/32MX795F512L\default_isr_vectors.o (__vector_dispatch_26)
c:/program files (x86)/microchip/xc32/v1.44/bin/bin/../../lib/gcc/pic32mx/4.8.3/../../../../pic32mx/lib\libpic32.a(vector27.o)
                              c:/program files (x86)/microchip/xc32/v1.44/bin/bin/../../lib/gcc/pic32mx/4.8.3/../../../../pic32mx/lib/./proc/32MX795F512L\default_isr_vectors.o (__vector_dispatch_27)
c:/program files (x86)/microchip/xc32/v1.44/bin/bin/../../lib/gcc/pic32mx/4.8.3/../../../../pic32mx/lib\libpic32.a(vector28.o)
                              c:/program files (x86)/microchip/xc32/v1.44/bin/bin/../../lib/gcc/pic32mx/4.8.3/../../../../pic32mx/lib/./proc/32MX795F512L\default_isr_vectors.o (__vector_dispatch_28)
c:/program files (x86)/microchip/xc32/v1.44/bin/bin/../../lib/gcc/pic32mx/4.8.3/../../../../pic32mx/lib\libpic32.a(vector29.o)
                              c:/program files (x86)/microchip/xc32/v1.44/bin/bin/../../lib/gcc/pic32mx/4.8.3/../../../../pic32mx/lib/./proc/32MX795F512L\default_isr_vectors.o (__vector_dispatch_29)
c:/program files (x86)/microchip/xc32/v1.44/bin/bin/../../lib/gcc/pic32mx/4.8.3/../../../../pic32mx/lib\libpic32.a(vector30.o)
                              c:/program files (x86)/microchip/xc32/v1.44/bin/bin/../../lib/gcc/pic32mx/4.8.3/../../../../pic32mx/lib/./proc/32MX795F512L\default_isr_vectors.o (__vector_dispatch_30)
c:/program files (x86)/microchip/xc32/v1.44/bin/bin/../../lib/gcc/pic32mx/4.8.3/../../../../pic32mx/lib\libpic32.a(vector31.o)
                              c:/program files (x86)/microchip/xc32/v1.44/bin/bin/../../lib/gcc/pic32mx/4.8.3/../../../../pic32mx/lib/./proc/32MX795F512L\default_isr_vectors.o (__vector_dispatch_31)
c:/program files (x86)/microchip/xc32/v1.44/bin/bin/../../lib/gcc/pic32mx/4.8.3/../../../../pic32mx/lib\libpic32.a(vector33.o)
                              c:/program files (x86)/microchip/xc32/v1.44/bin/bin/../../lib/gcc/pic32mx/4.8.3/../../../../pic32mx/lib/./proc/32MX795F512L\default_isr_vectors.o (__vector_dispatch_33)
c:/program files (x86)/microchip/xc32/v1.44/bin/bin/../../lib/gcc/pic32mx/4.8.3/../../../../pic32mx/lib\libpic32.a(vector34.o)
                              c:/program files (x86)/microchip/xc32/v1.44/bin/bin/../../lib/gcc/pic32mx/4.8.3/../../../../pic32mx/lib/./proc/32MX795F512L\default_isr_vectors.o (__vector_dispatch_34)
c:/program files (x86)/microchip/xc32/v1.44/bin/bin/../../lib/gcc/pic32mx/4.8.3/../../../../pic32mx/lib\libpic32.a(vector35.o)
                              c:/program files (x86)/microchip/xc32/v1.44/bin/bin/../../lib/gcc/pic32mx/4.8.3/../../../../pic32mx/lib/./proc/32MX795F512L\default_isr_vectors.o (__vector_dispatch_35)
c:/program files (x86)/microchip/xc32/v1.44/bin/bin/../../lib/gcc/pic32mx/4.8.3/../../../../pic32mx/lib\libpic32.a(vector36.o)
                              c:/program files (x86)/microchip/xc32/v1.44/bin/bin/../../lib/gcc/pic32mx/4.8.3/../../../../pic32mx/lib/./proc/32MX795F512L\default_isr_vectors.o (__vector_dispatch_36)
c:/program files (x86)/microchip/xc32/v1.44/bin/bin/../../lib/gcc/pic32mx/4.8.3/../../../../pic32mx/lib\libpic32.a(vector37.o)
                              c:/program files (x86)/microchip/xc32/v1.44/bin/bin/../../lib/gcc/pic32mx/4.8.3/../../../../pic32mx/lib/./proc/32MX795F512L\default_isr_vectors.o (__vector_dispatch_37)
c:/program files (x86)/microchip/xc32/v1.44/bin/bin/../../lib/gcc/pic32mx/4.8.3/../../../../pic32mx/lib\libpic32.a(vector38.o)
                              c:/program files (x86)/microchip/xc32/v1.44/bin/bin/../../lib/gcc/pic32mx/4.8.3/../../../../pic32mx/lib/./proc/32MX795F512L\default_isr_vectors.o (__vector_dispatch_38)
c:/program files (x86)/microchip/xc32/v1.44/bin/bin/../../lib/gcc/pic32mx/4.8.3/../../../../pic32mx/lib\libpic32.a(vector39.o)
                              c:/program files (x86)/microchip/xc32/v1.44/bin/bin/../../lib/gcc/pic32mx/4.8.3/../../../../pic32mx/lib/./proc/32MX795F512L\default_isr_vectors.o (__vector_dispatch_39)
c:/program files (x86)/microchip/xc32/v1.44/bin/bin/../../lib/gcc/pic32mx/4.8.3/../../../../pic32mx/lib\libpic32.a(vector40.o)
                              c:/program files (x86)/microchip/xc32/v1.44/bin/bin/../../lib/gcc/pic32mx/4.8.3/../../../../pic32mx/lib/./proc/32MX795F512L\default_isr_vectors.o (__vector_dispatch_40)
c:/program files (x86)/microchip/xc32/v1.44/bin/bin/../../lib/gcc/pic32mx/4.8.3/../../../../pic32mx/lib\libpic32.a(vector41.o)
                              c:/program files (x86)/microchip/xc32/v1.44/bin/bin/../../lib/gcc/pic32mx/4.8.3/../../../../pic32mx/lib/./proc/32MX795F512L\default_isr_vectors.o (__vector_dispatch_41)
c:/program files (x86)/microchip/xc32/v1.44/bin/bin/../../lib/gcc/pic32mx/4.8.3/../../../../pic32mx/lib\libpic32.a(vector42.o)
                              c:/program files (x86)/microchip/xc32/v1.44/bin/bin/../../lib/gcc/pic32mx/4.8.3/../../../../pic32mx/lib/./proc/32MX795F512L\default_isr_vectors.o (__vector_dispatch_42)
c:/program files (x86)/microchip/xc32/v1.44/bin/bin/../../lib/gcc/pic32mx/4.8.3/../../../../pic32mx/lib\libpic32.a(vector43.o)
                              c:/program files (x86)/microchip/xc32/v1.44/bin/bin/../../lib/gcc/pic32mx/4.8.3/../../../../pic32mx/lib/./proc/32MX795F512L\default_isr_vectors.o (__vector_dispatch_43)
c:/program files (x86)/microchip/xc32/v1.44/bin/bin/../../lib/gcc/pic32mx/4.8.3/../../../../pic32mx/lib\libpic32.a(vector44.o)
                              c:/program files (x86)/microchip/xc32/v1.44/bin/bin/../../lib/gcc/pic32mx/4.8.3/../../../../pic32mx/lib/./proc/32MX795F512L\default_isr_vectors.o (__vector_dispatch_44)
c:/program files (x86)/microchip/xc32/v1.44/bin/bin/../../lib/gcc/pic32mx/4.8.3/../../../../pic32mx/lib\libpic32.a(vector45.o)
                              c:/program files (x86)/microchip/xc32/v1.44/bin/bin/../../lib/gcc/pic32mx/4.8.3/../../../../pic32mx/lib/./proc/32MX795F512L\default_isr_vectors.o (__vector_dispatch_45)
c:/program files (x86)/microchip/xc32/v1.44/bin/bin/../../lib/gcc/pic32mx/4.8.3/../../../../pic32mx/lib\libpic32.a(vector46.o)
                              c:/program files (x86)/microchip/xc32/v1.44/bin/bin/../../lib/gcc/pic32mx/4.8.3/../../../../pic32mx/lib/./proc/32MX795F512L\default_isr_vectors.o (__vector_dispatch_46)
c:/program files (x86)/microchip/xc32/v1.44/bin/bin/../../lib/gcc/pic32mx/4.8.3/../../../../pic32mx/lib\libpic32.a(vector47.o)
                              c:/program files (x86)/microchip/xc32/v1.44/bin/bin/../../lib/gcc/pic32mx/4.8.3/../../../../pic32mx/lib/./proc/32MX795F512L\default_isr_vectors.o (__vector_dispatch_47)
c:/program files (x86)/microchip/xc32/v1.44/bin/bin/../../lib/gcc/pic32mx/4.8.3/../../../../pic32mx/lib\libpic32.a(vector48.o)
                              c:/program files (x86)/microchip/xc32/v1.44/bin/bin/../../lib/gcc/pic32mx/4.8.3/../../../../pic32mx/lib/./proc/32MX795F512L\default_isr_vectors.o (__vector_dispatch_48)
c:/program files (x86)/microchip/xc32/v1.44/bin/bin/../../lib/gcc/pic32mx/4.8.3/../../../../pic32mx/lib\libpic32.a(vector49.o)
                              c:/program files (x86)/microchip/xc32/v1.44/bin/bin/../../lib/gcc/pic32mx/4.8.3/../../../../pic32mx/lib/./proc/32MX795F512L\default_isr_vectors.o (__vector_dispatch_49)
c:/program files (x86)/microchip/xc32/v1.44/bin/bin/../../lib/gcc/pic32mx/4.8.3/../../../../pic32mx/lib\libpic32.a(vector50.o)
                              c:/program files (x86)/microchip/xc32/v1.44/bin/bin/../../lib/gcc/pic32mx/4.8.3/../../../../pic32mx/lib/./proc/32MX795F512L\default_isr_vectors.o (__vector_dispatch_50)
c:/program files (x86)/microchip/xc32/v1.44/bin/bin/../../lib/gcc/pic32mx/4.8.3/../../../../pic32mx/lib\libpic32.a(vector51.o)
                              c:/program files (x86)/microchip/xc32/v1.44/bin/bin/../../lib/gcc/pic32mx/4.8.3/../../../../pic32mx/lib/./proc/32MX795F512L\default_isr_vectors.o (__vector_dispatch_51)
c:/program files (x86)/microchip/xc32/v1.44/bin/bin/../../lib/gcc/pic32mx/4.8.3/../../../../pic32mx/lib\libpic32.a(default-general-exception-handler.o)
                              c:/program files (x86)/microchip/xc32/v1.44/bin/bin/../../lib/gcc/pic32mx/4.8.3/../../../../pic32mx/lib\libpic32.a(general-exception.o) (_general_exception_handler)
c:/program files (x86)/microchip/xc32/v1.44/bin/bin/../../lib/gcc/pic32mx/4.8.3/../../../../pic32mx/lib\libpic32.a(defaultinterrupt.o)
                              c:/program files (x86)/microchip/xc32/v1.44/bin/bin/../../lib/gcc/pic32mx/4.8.3/../../../../pic32mx/lib\libpic32.a(vector0.o) (_DefaultInterrupt)
c:/program files (x86)/microchip/xc32/v1.44/bin/bin/../../lib/gcc/pic32mx/4.8.3/../../../../pic32mx/lib\libc.a(printf_cdnopuxX.eo)
                              build/default/production/_ext/449926602/ble_manager.o (_printf_cdnopuxX)
c:/program files (x86)/microchip/xc32/v1.44/bin/bin/../../lib/gcc/pic32mx/4.8.3/../../../../pic32mx/lib\libc.a(_iob.o)
                              c:/program files (x86)/microchip/xc32/v1.44/bin/bin/../../lib/gcc/pic32mx/4.8.3/../../../../pic32mx/lib\libc.a(printf_cdnopuxX.eo) (_iob)
c:/program files (x86)/microchip/xc32/v1.44/bin/bin/../../lib/gcc/pic32mx/4.8.3/../../../../pic32mx/lib\libc.a(doprnt_cdnopuxX.eo)
                              c:/program files (x86)/microchip/xc32/v1.44/bin/bin/../../lib/gcc/pic32mx/4.8.3/../../../../pic32mx/lib\libc.a(printf_cdnopuxX.eo) (_vfprintf_cdnopuxX)
c:/program files (x86)/microchip/xc32/v1.44/bin/bin/../../lib/gcc/pic32mx/4.8.3/../../../../pic32mx/lib\libc.a(_fputc_simple.o)
                              c:/program files (x86)/microchip/xc32/v1.44/bin/bin/../../lib/gcc/pic32mx/4.8.3/../../../../pic32mx/lib\libc.a(doprnt_cdnopuxX.eo) (fputc)
c:/program files (x86)/microchip/xc32/v1.44/bin/bin/../../lib/gcc/pic32mx/4.8.3/../../../../pic32mx/lib\libc.a(ctype.o)
                              c:/program files (x86)/microchip/xc32/v1.44/bin/bin/../../lib/gcc/pic32mx/4.8.3/../../../../pic32mx/lib\libc.a(doprnt_cdnopuxX.eo) (_ctype)
c:/program files (x86)/microchip/xc32/v1.44/bin/bin/../../lib/gcc/pic32mx/4.8.3/../../../../pic32mx/lib\libc.a(_flsbuf_simple.o)
                              c:/program files (x86)/microchip/xc32/v1.44/bin/bin/../../lib/gcc/pic32mx/4.8.3/../../../../pic32mx/lib\libc.a(_fputc_simple.o) (_flsbuf)
c:/program files (x86)/microchip/xc32/v1.44/bin/bin/../../lib/gcc/pic32mx/4.8.3\libgcc.a(_udivdi3.o)
                              c:/program files (x86)/microchip/xc32/v1.44/bin/bin/../../lib/gcc/pic32mx/4.8.3/../../../../pic32mx/lib\libc.a(doprnt_cdnopuxX.eo) (__udivdi3)
c:/program files (x86)/microchip/xc32/v1.44/bin/bin/../../lib/gcc/pic32mx/4.8.3\libgcc.a(_umoddi3.o)
                              c:/program files (x86)/microchip/xc32/v1.44/bin/bin/../../lib/gcc/pic32mx/4.8.3/../../../../pic32mx/lib\libc.a(doprnt_cdnopuxX.eo) (__umoddi3)
c:/program files (x86)/microchip/xc32/v1.44/bin/bin/../../lib/gcc/pic32mx/4.8.3/../../../../pic32mx/lib\libpic32.a(write.o)
                              c:/program files (x86)/microchip/xc32/v1.44/bin/bin/../../lib/gcc/pic32mx/4.8.3/../../../../pic32mx/lib\libc.a(_fputc_simple.o) (write)
c:/program files (x86)/microchip/xc32/v1.44/bin/bin/../../lib/gcc/pic32mx/4.8.3/../../../../pic32mx/lib\libpic32.a(_mon_putc.o)
                              c:/program files (x86)/microchip/xc32/v1.44/bin/bin/../../lib/gcc/pic32mx/4.8.3/../../../../pic32mx/lib\libpic32.a(write.o) (_mon_putc)
c:/program files (x86)/microchip/xc32/v1.44/bin/bin/../../lib/gcc/pic32mx/4.8.3/../../../../pic32mx/lib\libpic32.a(xc32_uart.o)
                              c:/program files (x86)/microchip/xc32/v1.44/bin/bin/../../lib/gcc/pic32mx/4.8.3/../../../../pic32mx/lib\libpic32.a(_mon_putc.o) (__XC_UART)

Allocating common symbols
Common symbol       size              file

TimeCallback        0x4               build/default/production/_ext/8382566/time.o
g_index             0x2               build/default/production/_ext/449926602/ble_manager.o
mem_pool_base_addr  0x4               build/default/production/_ext/449926602/memory.o
max_count           0x4               build/default/production/_ext/449926602/memory.o
mem_pool_size       0x4               build/default/production/_ext/449926602/memory.o
ble_uart_receive_async
                    0x4               build/default/production/_ext/449926602/interface.o
event_mem           0x78              build/default/production/_ext/449926602/ble_manager.o
appRspData          0x1ff             build/default/production/_ext/449926602/bm_application_mode.o
event_payload       0x400             build/default/production/_ext/449926602/ble_manager.o
tail                0x4               build/default/production/_ext/449926602/memory.o
platform            0x4               build/default/production/_ext/449926602/interface.o
appDataCmdPkt       0x1ff             build/default/production/_ext/449926602/bm_application_mode.o
g_dataLen           0x2               build/default/production/_ext/449926602/ble_manager.o
g_tmpBuffer         0x1ff             build/default/production/_ext/449926602/ble_manager.o
head                0x4               build/default/production/_ext/449926602/memory.o

Microchip PIC32 Memory-Usage Report

kseg0 Program-Memory Usage
section                    address  length [bytes]      (dec)  Description
-------                 ----------  -------------------------  -----------
.rodata                 0x9d000000        0x40058      262232  Read-only const 
.text                   0x9d040058         0x8280       33408  App's exec code 
.text                   0x9d0482d8         0x28e0       10464  App's exec code 
.text                   0x9d04abb8         0x1b84        7044  App's exec code 
.text._vfprintf_cdnopux 0x9d04c73c          0xc8c        3212   
.text                   0x9d04d3c8         0x1114        4372  App's exec code 
.text                   0x9d04e4dc          0x7dc        2012  App's exec code 
.rodata                 0x9d04ecb8          0xfa8        4008  Read-only const 
.text                   0x9d04fc60          0x6bc        1724  App's exec code 
.rodata                 0x9d05031c          0x600        1536  Read-only const 
.text                   0x9d05091c          0xb80        2944  App's exec code 
.text                   0x9d05149c          0x544        1348  App's exec code 
.rodata                 0x9d0519e0          0x51c        1308  Read-only const 
.text                   0x9d051efc          0x930        2352  App's exec code 
.text                   0x9d05282c          0x458        1112  App's exec code 
.dinit                  0x9d052c84          0x3f0        1008   
.text                   0x9d053074          0x7b0        1968  App's exec code 
.text                   0x9d053824          0x580        1408  App's exec code 
.text                   0x9d053da4          0x48c        1164  App's exec code 
.rodata                 0x9d054230          0x1f0         496  Read-only const 
.text                   0x9d054420          0x2d0         720  App's exec code 
.text.fputc             0x9d0546f0          0x144         324   
.text._flsbuf           0x9d054834          0x12c         300   
.text                   0x9d054960          0x110         272  App's exec code 
.rodata                 0x9d054a70          0x104         260  Read-only const 
.text.general_exception 0x9d054b74           0xdc         220   
.text._mon_putc         0x9d054c50           0xd4         212   
.rodata                 0x9d054d28           0xd0         208  Read-only const 
.text                   0x9d054df8          0x14c         332  App's exec code 
.text.write             0x9d054f44           0x9c         156   
.text                   0x9d054fe0          0x12c         300  App's exec code 
.text                   0x9d05510c          0x10c         268  App's exec code 
.text                   0x9d055218           0xc4         196  App's exec code 
.text                   0x9d0552dc           0x58          88  App's exec code 
.text.main_entry        0x9d055334           0x54          84   
.rodata                 0x9d055388           0x4c          76  Read-only const 
.text._bootstrap_except 0x9d0553d4           0x48          72   
.text._general_exceptio 0x9d05541c           0x48          72   
.vector_default         0x9d055464           0x48          72   
.text                   0x9d0554ac           0x44          68  App's exec code 
.text._printf_cdnopuxX  0x9d0554f0           0x40          64   
.text                   0x9d055530           0x78         120  App's exec code 
.text                   0x9d0555a8           0x78         120  App's exec code 
.text                   0x9d055620           0x78         120  App's exec code 
.text                   0x9d055698           0x78         120  App's exec code 
.text                   0x9d055710           0x68         104  App's exec code 
.text                   0x9d055778           0x2c          44  App's exec code 
.rodata                 0x9d0557a4           0x18          24  Read-only const 
.text                   0x9d0557bc           0x18          24  App's exec code 
.text._on_reset         0x9d0557d4            0x8           8   
.text._on_bootstrap     0x9d0557dc            0x8           8   
      Total kseg0_program_mem used  :     0x557e0      350176  66.8% of 0x80000

kseg0 Boot-Memory Usage
section                    address  length [bytes]      (dec)  Description
-------                 ----------  -------------------------  -----------
         Total kseg0_boot_mem used  :           0           0  <1% of 0x970

Exception-Memory Usage 
section                    address  length [bytes]      (dec)  Description
-------                 ----------  -------------------------  -----------
.app_excpt              0x9fc01180           0x10          16  General-Exception 
.vector_0               0x9fc01200            0x8           8  Interrupt Vector 0 
.vector_1               0x9fc01220            0x8           8  Interrupt Vector 1 
.vector_2               0x9fc01240            0x8           8  Interrupt Vector 2 
.vector_3               0x9fc01260            0x8           8  Interrupt Vector 3 
.vector_4               0x9fc01280            0x8           8  Interrupt Vector 4 
.vector_5               0x9fc012a0            0x8           8  Interrupt Vector 5 
.vector_6               0x9fc012c0            0x8           8  Interrupt Vector 6 
.vector_7               0x9fc012e0            0x8           8  Interrupt Vector 7 
.vector_8               0x9fc01300            0x8           8  Interrupt Vector 8 
.vector_9               0x9fc01320            0x8           8  Interrupt Vector 9 
.vector_10              0x9fc01340            0x8           8  Interrupt Vector 10 
.vector_11              0x9fc01360            0x8           8  Interrupt Vector 11 
.vector_12              0x9fc01380            0x8           8  Interrupt Vector 12 
.vector_13              0x9fc013a0            0x8           8  Interrupt Vector 13 
.vector_14              0x9fc013c0            0x8           8  Interrupt Vector 14 
.vector_15              0x9fc013e0            0x8           8  Interrupt Vector 15 
.vector_16              0x9fc01400            0x8           8  Interrupt Vector 16 
.vector_17              0x9fc01420            0x8           8  Interrupt Vector 17 
.vector_18              0x9fc01440            0x8           8  Interrupt Vector 18 
.vector_19              0x9fc01460            0x8           8  Interrupt Vector 19 
.vector_20              0x9fc01480            0x8           8  Interrupt Vector 20 
.vector_21              0x9fc014a0            0x8           8  Interrupt Vector 21 
.vector_22              0x9fc014c0            0x8           8  Interrupt Vector 22 
.vector_23              0x9fc014e0            0x8           8  Interrupt Vector 23 
.vector_24              0x9fc01500            0x8           8  Interrupt Vector 24 
.vector_25              0x9fc01520            0x8           8  Interrupt Vector 25 
.vector_26              0x9fc01540            0x8           8  Interrupt Vector 26 
.vector_27              0x9fc01560            0x8           8  Interrupt Vector 27 
.vector_28              0x9fc01580            0x8           8  Interrupt Vector 28 
.vector_29              0x9fc015a0            0x8           8  Interrupt Vector 29 
.vector_30              0x9fc015c0            0x8           8  Interrupt Vector 30 
.vector_31              0x9fc015e0            0x8           8  Interrupt Vector 31 
.vector_32              0x9fc01600            0x8           8  Interrupt Vector 32 
.vector_33              0x9fc01620            0x8           8  Interrupt Vector 33 
.vector_34              0x9fc01640            0x8           8  Interrupt Vector 34 
.vector_35              0x9fc01660            0x8           8  Interrupt Vector 35 
.vector_36              0x9fc01680            0x8           8  Interrupt Vector 36 
.vector_37              0x9fc016a0            0x8           8  Interrupt Vector 37 
.vector_38              0x9fc016c0            0x8           8  Interrupt Vector 38 
.vector_39              0x9fc016e0            0x8           8  Interrupt Vector 39 
.vector_40              0x9fc01700            0x8           8  Interrupt Vector 40 
.vector_41              0x9fc01720            0x8           8  Interrupt Vector 41 
.vector_42              0x9fc01740            0x8           8  Interrupt Vector 42 
.vector_43              0x9fc01760            0x8           8  Interrupt Vector 43 
.vector_44              0x9fc01780            0x8           8  Interrupt Vector 44 
.vector_45              0x9fc017a0            0x8           8  Interrupt Vector 45 
.vector_46              0x9fc017c0            0x8           8  Interrupt Vector 46 
.vector_47              0x9fc017e0            0x8           8  Interrupt Vector 47 
.vector_48              0x9fc01800            0x8           8  Interrupt Vector 48 
.vector_49              0x9fc01820            0x8           8  Interrupt Vector 49 
.vector_50              0x9fc01840            0x8           8  Interrupt Vector 50 
.vector_51              0x9fc01860            0x8           8  Interrupt Vector 51 
          Total exception_mem used  :       0x1b0         432  10.5% of 0x1000

kseg1 Boot-Memory Usage
section                    address  length [bytes]      (dec)  Description
-------                 ----------  -------------------------  -----------
.reset                  0xbfc00000          0x208         520  Reset handler 
.bev_excpt              0xbfc00380           0x10          16  BEV-Exception 
         Total kseg1_boot_mem used  :       0x218         536  45.9% of 0x490
        --------------------------------------------------------------------------
         Total Program Memory used  :     0x55ba8      351144  66.0% of 0x81e00
        --------------------------------------------------------------------------


kseg1 Data-Memory Usage
section                    address  length [bytes]      (dec)  Description
-------                 ----------  -------------------------  -----------
.sdata                  0xa0000000           0x14          20  Small init data 
.sbss                   0xa0000014           0x88         136  Small uninit data 
.bss                    0xa000009c          0xa78        2680  Uninitialized data 
.bss                    0xa0000b14          0x6d0        1744  Uninitialized data 
.data                   0xa00011e4          0x1b8         440  Initialized data 
.bss                    0xa000139c           0xa8         168  Uninitialized data 
.data                   0xa0001444           0xa4         164  Initialized data 
.bss                    0xa00014e8           0x44          68  Uninitialized data 
.data                   0xa000152c           0x68         104  Initialized data 
.bss                    0xa0001594           0x18          24  Uninitialized data 
         Total kseg1_data_mem used  :      0x15ac        5548  4.2% of 0x20000
        --------------------------------------------------------------------------
            Total Data Memory used  :      0x15ac        5548  4.2% of 0x20000
        --------------------------------------------------------------------------


Dynamic Data-Memory Reservation
section                    address  length [bytes]      (dec)  Description
-------                 ----------  -------------------------  -----------
heap                    0xa00015b0          0x400        1024  Reserved for heap 
stack                   0xa00019c8        0x1e628      124456  Reserved for stack 

        --------------------------------------------------------------------------

Discarded input sections

 .reginfo       0x00000000       0x18 c:/program files (x86)/microchip/xc32/v1.44/bin/bin/../../lib/gcc/pic32mx/4.8.3/../../../../pic32mx/lib\debug-exception-return.o
 .reginfo       0x00000000       0x18 build/default/production/_ext/449926602/ble_api.o
 .reginfo       0x00000000       0x18 build/default/production/_ext/449926602/ble_manager.o
 .reginfo       0x00000000       0x18 build/default/production/_ext/449926602/bm_application_mode.o
 .reginfo       0x00000000       0x18 build/default/production/_ext/449926602/bm_program_mode.o
 .reginfo       0x00000000       0x18 build/default/production/_ext/449926602/bm_utils.o
 .reginfo       0x00000000       0x18 build/default/production/_ext/449926602/dfu_api.o
 .reginfo       0x00000000       0x18 build/default/production/_ext/449926602/dfu_manager.o
 .reginfo       0x00000000       0x18 build/default/production/_ext/449926602/event_mem.o
 .reginfo       0x00000000       0x18 build/default/production/_ext/449926602/fifo.o
 .reginfo       0x00000000       0x18 build/default/production/_ext/449926602/interface.o
 .reginfo       0x00000000       0x18 build/default/production/_ext/449926602/memory.o
 .reginfo       0x00000000       0x18 build/default/production/_ext/449926602/platform_pic.o
 .reginfo       0x00000000       0x18 build/default/production/_ext/1819808422/clear_core_sw0_leg_lib.o
 .reginfo       0x00000000       0x18 build/default/production/_ext/1819808422/clear_core_sw0_lib.o
 .reginfo       0x00000000       0x18 build/default/production/_ext/1819808422/clear_core_sw1_leg_lib.o
 .reginfo       0x00000000       0x18 build/default/production/_ext/1819808422/clear_core_sw1_lib.o
 .reginfo       0x00000000       0x18 build/default/production/_ext/1819808422/int_configure_system_lib.o
 .reginfo       0x00000000       0x18 build/default/production/_ext/1819808422/int_disable_interrupts_lib.o
 .reginfo       0x00000000       0x18 build/default/production/_ext/1819808422/int_enable_interrupts_lib.o
 .reginfo       0x00000000       0x18 build/default/production/_ext/1819808422/int_enable_mv_int_lib.o
 .reginfo       0x00000000       0x18 build/default/production/_ext/1819808422/int_enable_sv_int_lib.o
 .reginfo       0x00000000       0x18 build/default/production/_ext/1819808422/int_get_pending_int_lib.o
 .reginfo       0x00000000       0x18 build/default/production/_ext/1819808422/int_restore_interrupts_lib.o
 .reginfo       0x00000000       0x18 build/default/production/_ext/1819808422/int_set_ebase_lib.o
 .reginfo       0x00000000       0x18 build/default/production/_ext/1819808422/int_set_ebase_vs_lib.o
 .reginfo       0x00000000       0x18 build/default/production/_ext/1819808422/int_set_vector_spacing_lib.o
 .reginfo       0x00000000       0x18 build/default/production/_ext/1819808422/int_tbl_5xx_6xx_7xx_lib.o
 .reginfo       0x00000000       0x18 build/default/production/_ext/1819808422/int_tbl_legacy_lib.o
 .reginfo       0x00000000       0x18 build/default/production/_ext/1819808422/int_tbl_lib.o
 .reginfo       0x00000000       0x18 build/default/production/_ext/1819808422/int_tbl_lib_obs.o
 .reginfo       0x00000000       0x18 build/default/production/_ext/1819808422/set_core_sw0_leg_lib.o
 .reginfo       0x00000000       0x18 build/default/production/_ext/1819808422/set_core_sw0_lib.o
 .reginfo       0x00000000       0x18 build/default/production/_ext/1819808422/set_core_sw1_leg_lib.o
 .reginfo       0x00000000       0x18 build/default/production/_ext/1819808422/set_core_sw1_lib.o
 .reginfo       0x00000000       0x18 build/default/production/_ext/1986190483/pcache.o
 .reginfo       0x00000000       0x18 build/default/production/_ext/2046243727/uart_lib.o
 .reginfo       0x00000000       0x18 build/default/production/_ext/8382566/time.o
 .reginfo       0x00000000       0x18 build/default/production/_ext/8382566/uart_app.o
 .reginfo       0x00000000       0x18 build/default/production/_ext/8382566/uart_drv.o
 .reginfo       0x00000000       0x18 build/default/production/_ext/1472/main.o
 .reginfo       0x00000000       0x18 c:/program files (x86)/microchip/xc32/v1.44/bin/bin/../../lib/gcc/pic32mx/4.8.3/../../../../pic32mx/lib/./proc/32MX795F512L\default_isr_vectors.o
 .discard       0x00000000       0xd0 c:/program files (x86)/microchip/xc32/v1.44/bin/bin/../../lib/gcc/pic32mx/4.8.3/../../../../pic32mx/lib/./proc/32MX795F512L\default_isr_vectors.o
 .reginfo       0x00000000       0x18 c:/program files (x86)/microchip/xc32/v1.44/bin/bin/../../lib/gcc/pic32mx/4.8.3/../../../../pic32mx/lib\pic32_software_reset.o
 .reginfo       0x00000000       0x18 c:/program files (x86)/microchip/xc32/v1.44/bin/bin/../../lib/gcc/pic32mx/4.8.3/../../../../pic32mx/lib/./proc/32MX795F512L\processor.o
 .reginfo       0x00000000       0x18 c:/program files (x86)/microchip/xc32/v1.44/bin/bin/../../lib/gcc/pic32mx/4.8.3/../../../../pic32mx/lib\libpic32.a(memcmp.o)
 .reginfo       0x00000000       0x18 c:/program files (x86)/microchip/xc32/v1.44/bin/bin/../../lib/gcc/pic32mx/4.8.3/../../../../pic32mx/lib\libpic32.a(memcpy.o)
 .reginfo       0x00000000       0x18 c:/program files (x86)/microchip/xc32/v1.44/bin/bin/../../lib/gcc/pic32mx/4.8.3/../../../../pic32mx/lib\libpic32.a(memset.o)
 .reginfo       0x00000000       0x18 c:/program files (x86)/microchip/xc32/v1.44/bin/bin/../../lib/gcc/pic32mx/4.8.3/../../../../pic32mx/lib\libpic32.a(strlen.o)
 .reginfo       0x00000000       0x18 c:/program files (x86)/microchip/xc32/v1.44/bin/bin/../../lib/gcc/pic32mx/4.8.3/../../../../pic32mx/lib\libpic32.a(default-bootstrap-exception-handler.o)
 .reginfo       0x00000000       0x18 c:/program files (x86)/microchip/xc32/v1.44/bin/bin/../../lib/gcc/pic32mx/4.8.3/../../../../pic32mx/lib\libpic32.a(default-on-reset.o)
 .reginfo       0x00000000       0x18 c:/program files (x86)/microchip/xc32/v1.44/bin/bin/../../lib/gcc/pic32mx/4.8.3/../../../../pic32mx/lib\libpic32.a(default-on-bootstrap.o)
 .reginfo       0x00000000       0x18 c:/program files (x86)/microchip/xc32/v1.44/bin/bin/../../lib/gcc/pic32mx/4.8.3/../../../../pic32mx/lib\libpic32.a(default-nmi-handler.o)
 .reginfo       0x00000000       0x18 c:/program files (x86)/microchip/xc32/v1.44/bin/bin/../../lib/gcc/pic32mx/4.8.3/../../../../pic32mx/lib\libpic32.a(general-exception.o)
 .reginfo       0x00000000       0x18 c:/program files (x86)/microchip/xc32/v1.44/bin/bin/../../lib/gcc/pic32mx/4.8.3/../../../../pic32mx/lib\libpic32.a(vector0.o)
 .reginfo       0x00000000       0x18 c:/program files (x86)/microchip/xc32/v1.44/bin/bin/../../lib/gcc/pic32mx/4.8.3/../../../../pic32mx/lib\libpic32.a(vector1.o)
 .reginfo       0x00000000       0x18 c:/program files (x86)/microchip/xc32/v1.44/bin/bin/../../lib/gcc/pic32mx/4.8.3/../../../../pic32mx/lib\libpic32.a(vector2.o)
 .reginfo       0x00000000       0x18 c:/program files (x86)/microchip/xc32/v1.44/bin/bin/../../lib/gcc/pic32mx/4.8.3/../../../../pic32mx/lib\libpic32.a(vector3.o)
 .reginfo       0x00000000       0x18 c:/program files (x86)/microchip/xc32/v1.44/bin/bin/../../lib/gcc/pic32mx/4.8.3/../../../../pic32mx/lib\libpic32.a(vector5.o)
 .reginfo       0x00000000       0x18 c:/program files (x86)/microchip/xc32/v1.44/bin/bin/../../lib/gcc/pic32mx/4.8.3/../../../../pic32mx/lib\libpic32.a(vector6.o)
 .reginfo       0x00000000       0x18 c:/program files (x86)/microchip/xc32/v1.44/bin/bin/../../lib/gcc/pic32mx/4.8.3/../../../../pic32mx/lib\libpic32.a(vector7.o)
 .reginfo       0x00000000       0x18 c:/program files (x86)/microchip/xc32/v1.44/bin/bin/../../lib/gcc/pic32mx/4.8.3/../../../../pic32mx/lib\libpic32.a(vector8.o)
 .reginfo       0x00000000       0x18 c:/program files (x86)/microchip/xc32/v1.44/bin/bin/../../lib/gcc/pic32mx/4.8.3/../../../../pic32mx/lib\libpic32.a(vector9.o)
 .reginfo       0x00000000       0x18 c:/program files (x86)/microchip/xc32/v1.44/bin/bin/../../lib/gcc/pic32mx/4.8.3/../../../../pic32mx/lib\libpic32.a(vector10.o)
 .reginfo       0x00000000       0x18 c:/program files (x86)/microchip/xc32/v1.44/bin/bin/../../lib/gcc/pic32mx/4.8.3/../../../../pic32mx/lib\libpic32.a(vector11.o)
 .reginfo       0x00000000       0x18 c:/program files (x86)/microchip/xc32/v1.44/bin/bin/../../lib/gcc/pic32mx/4.8.3/../../../../pic32mx/lib\libpic32.a(vector12.o)
 .reginfo       0x00000000       0x18 c:/program files (x86)/microchip/xc32/v1.44/bin/bin/../../lib/gcc/pic32mx/4.8.3/../../../../pic32mx/lib\libpic32.a(vector13.o)
 .reginfo       0x00000000       0x18 c:/program files (x86)/microchip/xc32/v1.44/bin/bin/../../lib/gcc/pic32mx/4.8.3/../../../../pic32mx/lib\libpic32.a(vector14.o)
 .reginfo       0x00000000       0x18 c:/program files (x86)/microchip/xc32/v1.44/bin/bin/../../lib/gcc/pic32mx/4.8.3/../../../../pic32mx/lib\libpic32.a(vector15.o)
 .reginfo       0x00000000       0x18 c:/program files (x86)/microchip/xc32/v1.44/bin/bin/../../lib/gcc/pic32mx/4.8.3/../../../../pic32mx/lib\libpic32.a(vector16.o)
 .reginfo       0x00000000       0x18 c:/program files (x86)/microchip/xc32/v1.44/bin/bin/../../lib/gcc/pic32mx/4.8.3/../../../../pic32mx/lib\libpic32.a(vector17.o)
 .reginfo       0x00000000       0x18 c:/program files (x86)/microchip/xc32/v1.44/bin/bin/../../lib/gcc/pic32mx/4.8.3/../../../../pic32mx/lib\libpic32.a(vector18.o)
 .reginfo       0x00000000       0x18 c:/program files (x86)/microchip/xc32/v1.44/bin/bin/../../lib/gcc/pic32mx/4.8.3/../../../../pic32mx/lib\libpic32.a(vector19.o)
 .reginfo       0x00000000       0x18 c:/program files (x86)/microchip/xc32/v1.44/bin/bin/../../lib/gcc/pic32mx/4.8.3/../../../../pic32mx/lib\libpic32.a(vector20.o)
 .reginfo       0x00000000       0x18 c:/program files (x86)/microchip/xc32/v1.44/bin/bin/../../lib/gcc/pic32mx/4.8.3/../../../../pic32mx/lib\libpic32.a(vector21.o)
 .reginfo       0x00000000       0x18 c:/program files (x86)/microchip/xc32/v1.44/bin/bin/../../lib/gcc/pic32mx/4.8.3/../../../../pic32mx/lib\libpic32.a(vector22.o)
 .reginfo       0x00000000       0x18 c:/program files (x86)/microchip/xc32/v1.44/bin/bin/../../lib/gcc/pic32mx/4.8.3/../../../../pic32mx/lib\libpic32.a(vector23.o)
 .reginfo       0x00000000       0x18 c:/program files (x86)/microchip/xc32/v1.44/bin/bin/../../lib/gcc/pic32mx/4.8.3/../../../../pic32mx/lib\libpic32.a(vector25.o)
 .reginfo       0x00000000       0x18 c:/program files (x86)/microchip/xc32/v1.44/bin/bin/../../lib/gcc/pic32mx/4.8.3/../../../../pic32mx/lib\libpic32.a(vector26.o)
 .reginfo       0x00000000       0x18 c:/program files (x86)/microchip/xc32/v1.44/bin/bin/../../lib/gcc/pic32mx/4.8.3/../../../../pic32mx/lib\libpic32.a(vector27.o)
 .reginfo       0x00000000       0x18 c:/program files (x86)/microchip/xc32/v1.44/bin/bin/../../lib/gcc/pic32mx/4.8.3/../../../../pic32mx/lib\libpic32.a(vector28.o)
 .reginfo       0x00000000       0x18 c:/program files (x86)/microchip/xc32/v1.44/bin/bin/../../lib/gcc/pic32mx/4.8.3/../../../../pic32mx/lib\libpic32.a(vector29.o)
 .reginfo       0x00000000       0x18 c:/program files (x86)/microchip/xc32/v1.44/bin/bin/../../lib/gcc/pic32mx/4.8.3/../../../../pic32mx/lib\libpic32.a(vector30.o)
 .reginfo       0x00000000       0x18 c:/program files (x86)/microchip/xc32/v1.44/bin/bin/../../lib/gcc/pic32mx/4.8.3/../../../../pic32mx/lib\libpic32.a(vector31.o)
 .reginfo       0x00000000       0x18 c:/program files (x86)/microchip/xc32/v1.44/bin/bin/../../lib/gcc/pic32mx/4.8.3/../../../../pic32mx/lib\libpic32.a(vector33.o)
 .reginfo       0x00000000       0x18 c:/program files (x86)/microchip/xc32/v1.44/bin/bin/../../lib/gcc/pic32mx/4.8.3/../../../../pic32mx/lib\libpic32.a(vector34.o)
 .reginfo       0x00000000       0x18 c:/program files (x86)/microchip/xc32/v1.44/bin/bin/../../lib/gcc/pic32mx/4.8.3/../../../../pic32mx/lib\libpic32.a(vector35.o)
 .reginfo       0x00000000       0x18 c:/program files (x86)/microchip/xc32/v1.44/bin/bin/../../lib/gcc/pic32mx/4.8.3/../../../../pic32mx/lib\libpic32.a(vector36.o)
 .reginfo       0x00000000       0x18 c:/program files (x86)/microchip/xc32/v1.44/bin/bin/../../lib/gcc/pic32mx/4.8.3/../../../../pic32mx/lib\libpic32.a(vector37.o)
 .reginfo       0x00000000       0x18 c:/program files (x86)/microchip/xc32/v1.44/bin/bin/../../lib/gcc/pic32mx/4.8.3/../../../../pic32mx/lib\libpic32.a(vector38.o)
 .reginfo       0x00000000       0x18 c:/program files (x86)/microchip/xc32/v1.44/bin/bin/../../lib/gcc/pic32mx/4.8.3/../../../../pic32mx/lib\libpic32.a(vector39.o)
 .reginfo       0x00000000       0x18 c:/program files (x86)/microchip/xc32/v1.44/bin/bin/../../lib/gcc/pic32mx/4.8.3/../../../../pic32mx/lib\libpic32.a(vector40.o)
 .reginfo       0x00000000       0x18 c:/program files (x86)/microchip/xc32/v1.44/bin/bin/../../lib/gcc/pic32mx/4.8.3/../../../../pic32mx/lib\libpic32.a(vector41.o)
 .reginfo       0x00000000       0x18 c:/program files (x86)/microchip/xc32/v1.44/bin/bin/../../lib/gcc/pic32mx/4.8.3/../../../../pic32mx/lib\libpic32.a(vector42.o)
 .reginfo       0x00000000       0x18 c:/program files (x86)/microchip/xc32/v1.44/bin/bin/../../lib/gcc/pic32mx/4.8.3/../../../../pic32mx/lib\libpic32.a(vector43.o)
 .reginfo       0x00000000       0x18 c:/program files (x86)/microchip/xc32/v1.44/bin/bin/../../lib/gcc/pic32mx/4.8.3/../../../../pic32mx/lib\libpic32.a(vector44.o)
 .reginfo       0x00000000       0x18 c:/program files (x86)/microchip/xc32/v1.44/bin/bin/../../lib/gcc/pic32mx/4.8.3/../../../../pic32mx/lib\libpic32.a(vector45.o)
 .reginfo       0x00000000       0x18 c:/program files (x86)/microchip/xc32/v1.44/bin/bin/../../lib/gcc/pic32mx/4.8.3/../../../../pic32mx/lib\libpic32.a(vector46.o)
 .reginfo       0x00000000       0x18 c:/program files (x86)/microchip/xc32/v1.44/bin/bin/../../lib/gcc/pic32mx/4.8.3/../../../../pic32mx/lib\libpic32.a(vector47.o)
 .reginfo       0x00000000       0x18 c:/program files (x86)/microchip/xc32/v1.44/bin/bin/../../lib/gcc/pic32mx/4.8.3/../../../../pic32mx/lib\libpic32.a(vector48.o)
 .reginfo       0x00000000       0x18 c:/program files (x86)/microchip/xc32/v1.44/bin/bin/../../lib/gcc/pic32mx/4.8.3/../../../../pic32mx/lib\libpic32.a(vector49.o)
 .reginfo       0x00000000       0x18 c:/program files (x86)/microchip/xc32/v1.44/bin/bin/../../lib/gcc/pic32mx/4.8.3/../../../../pic32mx/lib\libpic32.a(vector50.o)
 .reginfo       0x00000000       0x18 c:/program files (x86)/microchip/xc32/v1.44/bin/bin/../../lib/gcc/pic32mx/4.8.3/../../../../pic32mx/lib\libpic32.a(vector51.o)
 .reginfo       0x00000000       0x18 c:/program files (x86)/microchip/xc32/v1.44/bin/bin/../../lib/gcc/pic32mx/4.8.3/../../../../pic32mx/lib\libpic32.a(default-general-exception-handler.o)
 .reginfo       0x00000000       0x18 c:/program files (x86)/microchip/xc32/v1.44/bin/bin/../../lib/gcc/pic32mx/4.8.3/../../../../pic32mx/lib\libpic32.a(defaultinterrupt.o)
 .reginfo       0x00000000       0x18 c:/program files (x86)/microchip/xc32/v1.44/bin/bin/../../lib/gcc/pic32mx/4.8.3/../../../../pic32mx/lib\libc.a(printf_cdnopuxX.eo)
 .reginfo       0x00000000       0x18 c:/program files (x86)/microchip/xc32/v1.44/bin/bin/../../lib/gcc/pic32mx/4.8.3/../../../../pic32mx/lib\libc.a(_iob.o)
 .reginfo       0x00000000       0x18 c:/program files (x86)/microchip/xc32/v1.44/bin/bin/../../lib/gcc/pic32mx/4.8.3/../../../../pic32mx/lib\libc.a(doprnt_cdnopuxX.eo)
 .reginfo       0x00000000       0x18 c:/program files (x86)/microchip/xc32/v1.44/bin/bin/../../lib/gcc/pic32mx/4.8.3/../../../../pic32mx/lib\libc.a(_fputc_simple.o)
 .reginfo       0x00000000       0x18 c:/program files (x86)/microchip/xc32/v1.44/bin/bin/../../lib/gcc/pic32mx/4.8.3/../../../../pic32mx/lib\libc.a(ctype.o)
 .reginfo       0x00000000       0x18 c:/program files (x86)/microchip/xc32/v1.44/bin/bin/../../lib/gcc/pic32mx/4.8.3/../../../../pic32mx/lib\libc.a(_flsbuf_simple.o)
 .reginfo       0x00000000       0x18 c:/program files (x86)/microchip/xc32/v1.44/bin/bin/../../lib/gcc/pic32mx/4.8.3\libgcc.a(_udivdi3.o)
 .reginfo       0x00000000       0x18 c:/program files (x86)/microchip/xc32/v1.44/bin/bin/../../lib/gcc/pic32mx/4.8.3\libgcc.a(_umoddi3.o)
 .reginfo       0x00000000       0x18 c:/program files (x86)/microchip/xc32/v1.44/bin/bin/../../lib/gcc/pic32mx/4.8.3/../../../../pic32mx/lib\libpic32.a(write.o)
 .reginfo       0x00000000       0x18 c:/program files (x86)/microchip/xc32/v1.44/bin/bin/../../lib/gcc/pic32mx/4.8.3/../../../../pic32mx/lib\libpic32.a(_mon_putc.o)
 .reginfo       0x00000000       0x18 c:/program files (x86)/microchip/xc32/v1.44/bin/bin/../../lib/gcc/pic32mx/4.8.3/../../../../pic32mx/lib\libpic32.a(xc32_uart.o)

Memory Configuration

Name             Origin             Length             Attributes
kseg0_program_mem 0x9d000000         0x00080000         xr
kseg0_boot_mem   0x9fc00490         0x00000970
exception_mem    0x9fc01000         0x00001000
kseg1_boot_mem   0xbfc00000         0x00000490
debug_exec_mem   0xbfc02000         0x00000ff0
config3          0xbfc02ff0         0x00000004
config2          0xbfc02ff4         0x00000004
config1          0xbfc02ff8         0x00000004
config0          0xbfc02ffc         0x00000004
kseg1_data_mem   0xa0000000         0x00020000         w !x
sfrs             0xbf800000         0x00100000
configsfrs       0xbfc02ff0         0x00000010
*default*        0x00000000         0xffffffff

Linker script and memory map

LOAD c:/program files (x86)/microchip/xc32/v1.44/bin/bin/../../lib/gcc/pic32mx/4.8.3/../../../../pic32mx/lib/./proc/32MX795F512L/crt0_mips32r2.o
LOAD c:/program files (x86)/microchip/xc32/v1.44/bin/bin/../../lib/gcc/pic32mx/4.8.3/../../../../pic32mx/lib\debug-exception-return.o
LOAD build/default/production/_ext/449926602/ble_api.o
LOAD build/default/production/_ext/449926602/ble_manager.o
LOAD build/default/production/_ext/449926602/bm_application_mode.o
LOAD build/default/production/_ext/449926602/bm_program_mode.o
LOAD build/default/production/_ext/449926602/bm_utils.o
LOAD build/default/production/_ext/449926602/dfu_api.o
LOAD build/default/production/_ext/449926602/dfu_manager.o
LOAD build/default/production/_ext/449926602/event_mem.o
LOAD build/default/production/_ext/449926602/fifo.o
LOAD build/default/production/_ext/449926602/interface.o
LOAD build/default/production/_ext/449926602/memory.o
LOAD build/default/production/_ext/449926602/platform_pic.o
LOAD build/default/production/_ext/1819808422/clear_core_sw0_leg_lib.o
LOAD build/default/production/_ext/1819808422/clear_core_sw0_lib.o
LOAD build/default/production/_ext/1819808422/clear_core_sw1_leg_lib.o
LOAD build/default/production/_ext/1819808422/clear_core_sw1_lib.o
LOAD build/default/production/_ext/1819808422/int_configure_system_lib.o
LOAD build/default/production/_ext/1819808422/int_disable_interrupts_lib.o
LOAD build/default/production/_ext/1819808422/int_enable_interrupts_lib.o
LOAD build/default/production/_ext/1819808422/int_enable_mv_int_lib.o
LOAD build/default/production/_ext/1819808422/int_enable_sv_int_lib.o
LOAD build/default/production/_ext/1819808422/int_get_pending_int_lib.o
LOAD build/default/production/_ext/1819808422/int_restore_interrupts_lib.o
LOAD build/default/production/_ext/1819808422/int_set_ebase_lib.o
LOAD build/default/production/_ext/1819808422/int_set_ebase_vs_lib.o
LOAD build/default/production/_ext/1819808422/int_set_vector_spacing_lib.o
LOAD build/default/production/_ext/1819808422/int_tbl_5xx_6xx_7xx_lib.o
LOAD build/default/production/_ext/1819808422/int_tbl_legacy_lib.o
LOAD build/default/production/_ext/1819808422/int_tbl_lib.o
LOAD build/default/production/_ext/1819808422/int_tbl_lib_obs.o
LOAD build/default/production/_ext/1819808422/set_core_sw0_leg_lib.o
LOAD build/default/production/_ext/1819808422/set_core_sw0_lib.o
LOAD build/default/production/_ext/1819808422/set_core_sw1_leg_lib.o
LOAD build/default/production/_ext/1819808422/set_core_sw1_lib.o
LOAD build/default/production/_ext/1986190483/pcache.o
LOAD build/default/production/_ext/2046243727/uart_lib.o
LOAD build/default/production/_ext/8382566/time.o
LOAD build/default/production/_ext/8382566/uart_app.o
LOAD build/default/production/_ext/8382566/uart_drv.o
LOAD build/default/production/_ext/1472/main.o
                0x00000001                __MPLAB_BUILD = 0x1
                0x00000400                _min_heap_size = 0x400
LOAD c:/program files (x86)/microchip/xc32/v1.44/bin/bin/../../lib/gcc/pic32mx/4.8.3/../../../../pic32mx/lib/./proc/32MX795F512L\default_isr_vectors.o
LOAD c:/program files (x86)/microchip/xc32/v1.44/bin/bin/../../lib/gcc/pic32mx/4.8.3/../../../../pic32mx/lib\pic32_software_reset.o
                0x00000400                PROVIDE (_min_stack_size, 0x400)
LOAD c:/program files (x86)/microchip/xc32/v1.44/bin/bin/../../lib/gcc/pic32mx/4.8.3/../../../../pic32mx/lib/./proc/32MX795F512L\processor.o
START GROUP
LOAD libmchp_peripheral.a
END GROUP
START GROUP
LOAD libmchp_peripheral_32MX795F512L.a
END GROUP
                0x00000001                PROVIDE (_vector_spacing, 0x1)
                0x9fc01000                PROVIDE (_ebase_address, 0x9fc01000)
                0xbfc00000                _RESET_ADDR = 0xbfc00000
                0xbfc00380                _BEV_EXCPT_ADDR = 0xbfc00380
                0xbfc00480                _DBG_EXCPT_ADDR = 0xbfc00480
                0xbfc02000                _DBG_CODE_ADDR = 0xbfc02000
                0x00000ff0                _DBG_CODE_SIZE = 0xff0
                0x9fc01180                _GEN_EXCPT_ADDR = (_ebase_address + 0x180)

.config_BFC02FF0
 *(.config_BFC02FF0)

.config_BFC02FF4
                0xbfc02ff4        0x4
 *(.config_BFC02FF4)
 .config_BFC02FF4
                0xbfc02ff4        0x4 build/default/production/_ext/1472/main.o

.config_BFC02FF8
                0xbfc02ff8        0x4
 *(.config_BFC02FF8)
 .config_BFC02FF8
                0xbfc02ff8        0x4 build/default/production/_ext/1472/main.o

.config_BFC02FFC
 *(.config_BFC02FFC)
                0xbfc02000                PROVIDE (_DBG_CODE_ADDR, 0xbfc02000)
                0x00000ff0                PROVIDE (_DBG_CODE_SIZE, 0xff0)

.reset          0xbfc00000      0x208
 *(.reset)
 .reset         0xbfc00000        0x8 c:/program files (x86)/microchip/xc32/v1.44/bin/bin/../../lib/gcc/pic32mx/4.8.3/../../../../pic32mx/lib/./proc/32MX795F512L/crt0_mips32r2.o
                0xbfc00000                _reset
 *(.reset.startup)
 .reset.startup
                0xbfc00008      0x200 c:/program files (x86)/microchip/xc32/v1.44/bin/bin/../../lib/gcc/pic32mx/4.8.3/../../../../pic32mx/lib/./proc/32MX795F512L/crt0_mips32r2.o
                0xbfc00008                _startup

.bev_excpt      0xbfc00380       0x10
 *(.bev_handler)
 .bev_handler   0xbfc00380       0x10 c:/program files (x86)/microchip/xc32/v1.44/bin/bin/../../lib/gcc/pic32mx/4.8.3/../../../../pic32mx/lib/./proc/32MX795F512L/crt0_mips32r2.o

.dbg_excpt      0xbfc00480        0x0
                0xbfc00480                . = (. + DEFINED (_DEBUGGER)?0x8:0x0)

.dbg_code       0xbfc02000        0x0
                0xbfc02000                . = (. + DEFINED (_DEBUGGER)?_DBG_CODE_SIZE:0x0)

.app_excpt      0x9fc01180       0x10
 *(.gen_handler)
 .gen_handler   0x9fc01180       0x10 c:/program files (x86)/microchip/xc32/v1.44/bin/bin/../../lib/gcc/pic32mx/4.8.3/../../../../pic32mx/lib/./proc/32MX795F512L/crt0_mips32r2.o

.vector_0       0x9fc01200        0x8
 *(.vector_0)
 .vector_0      0x9fc01200        0x8 c:/program files (x86)/microchip/xc32/v1.44/bin/bin/../../lib/gcc/pic32mx/4.8.3/../../../../pic32mx/lib\libpic32.a(vector0.o)
                0x9fc01200                __vector_dispatch_0
                0x00000001                ASSERT (((_vector_spacing == 0x0) || (SIZEOF (.vector_0) <= (_vector_spacing << 0x5))), function at exception vector 0 too large)

.vector_1       0x9fc01220        0x8
 *(.vector_1)
 .vector_1      0x9fc01220        0x8 c:/program files (x86)/microchip/xc32/v1.44/bin/bin/../../lib/gcc/pic32mx/4.8.3/../../../../pic32mx/lib\libpic32.a(vector1.o)
                0x9fc01220                __vector_dispatch_1
                0x00000001                ASSERT (((_vector_spacing == 0x0) || (SIZEOF (.vector_1) <= (_vector_spacing << 0x5))), function at exception vector 1 too large)

.vector_2       0x9fc01240        0x8
 *(.vector_2)
 .vector_2      0x9fc01240        0x8 c:/program files (x86)/microchip/xc32/v1.44/bin/bin/../../lib/gcc/pic32mx/4.8.3/../../../../pic32mx/lib\libpic32.a(vector2.o)
                0x9fc01240                __vector_dispatch_2
                0x00000001                ASSERT (((_vector_spacing == 0x0) || (SIZEOF (.vector_2) <= (_vector_spacing << 0x5))), function at exception vector 2 too large)

.vector_3       0x9fc01260        0x8
 *(.vector_3)
 .vector_3      0x9fc01260        0x8 c:/program files (x86)/microchip/xc32/v1.44/bin/bin/../../lib/gcc/pic32mx/4.8.3/../../../../pic32mx/lib\libpic32.a(vector3.o)
                0x9fc01260                __vector_dispatch_3
                0x00000001                ASSERT (((_vector_spacing == 0x0) || (SIZEOF (.vector_3) <= (_vector_spacing << 0x5))), function at exception vector 3 too large)

.vector_4       0x9fc01280        0x8
 *(.vector_4)
 .vector_4      0x9fc01280        0x8 build/default/production/_ext/8382566/time.o
                0x9fc01280                __vector_dispatch_4
                0x00000001                ASSERT (((_vector_spacing == 0x0) || (SIZEOF (.vector_4) <= (_vector_spacing << 0x5))), function at exception vector 4 too large)

.vector_5       0x9fc012a0        0x8
 *(.vector_5)
 .vector_5      0x9fc012a0        0x8 c:/program files (x86)/microchip/xc32/v1.44/bin/bin/../../lib/gcc/pic32mx/4.8.3/../../../../pic32mx/lib\libpic32.a(vector5.o)
                0x9fc012a0                __vector_dispatch_5
                0x00000001                ASSERT (((_vector_spacing == 0x0) || (SIZEOF (.vector_5) <= (_vector_spacing << 0x5))), function at exception vector 5 too large)

.vector_6       0x9fc012c0        0x8
 *(.vector_6)
 .vector_6      0x9fc012c0        0x8 c:/program files (x86)/microchip/xc32/v1.44/bin/bin/../../lib/gcc/pic32mx/4.8.3/../../../../pic32mx/lib\libpic32.a(vector6.o)
                0x9fc012c0                __vector_dispatch_6
                0x00000001                ASSERT (((_vector_spacing == 0x0) || (SIZEOF (.vector_6) <= (_vector_spacing << 0x5))), function at exception vector 6 too large)

.vector_7       0x9fc012e0        0x8
 *(.vector_7)
 .vector_7      0x9fc012e0        0x8 c:/program files (x86)/microchip/xc32/v1.44/bin/bin/../../lib/gcc/pic32mx/4.8.3/../../../../pic32mx/lib\libpic32.a(vector7.o)
                0x9fc012e0                __vector_dispatch_7
                0x00000001                ASSERT (((_vector_spacing == 0x0) || (SIZEOF (.vector_7) <= (_vector_spacing << 0x5))), function at exception vector 7 too large)

.vector_8       0x9fc01300        0x8
 *(.vector_8)
 .vector_8      0x9fc01300        0x8 c:/program files (x86)/microchip/xc32/v1.44/bin/bin/../../lib/gcc/pic32mx/4.8.3/../../../../pic32mx/lib\libpic32.a(vector8.o)
                0x9fc01300                __vector_dispatch_8
                0x00000001                ASSERT (((_vector_spacing == 0x0) || (SIZEOF (.vector_8) <= (_vector_spacing << 0x5))), function at exception vector 8 too large)

.vector_9       0x9fc01320        0x8
 *(.vector_9)
 .vector_9      0x9fc01320        0x8 c:/program files (x86)/microchip/xc32/v1.44/bin/bin/../../lib/gcc/pic32mx/4.8.3/../../../../pic32mx/lib\libpic32.a(vector9.o)
                0x9fc01320                __vector_dispatch_9
                0x00000001                ASSERT (((_vector_spacing == 0x0) || (SIZEOF (.vector_9) <= (_vector_spacing << 0x5))), function at exception vector 9 too large)

.vector_10      0x9fc01340        0x8
 *(.vector_10)
 .vector_10     0x9fc01340        0x8 c:/program files (x86)/microchip/xc32/v1.44/bin/bin/../../lib/gcc/pic32mx/4.8.3/../../../../pic32mx/lib\libpic32.a(vector10.o)
                0x9fc01340                __vector_dispatch_10
                0x00000001                ASSERT (((_vector_spacing == 0x0) || (SIZEOF (.vector_10) <= (_vector_spacing << 0x5))), function at exception vector 10 too large)

.vector_11      0x9fc01360        0x8
 *(.vector_11)
 .vector_11     0x9fc01360        0x8 c:/program files (x86)/microchip/xc32/v1.44/bin/bin/../../lib/gcc/pic32mx/4.8.3/../../../../pic32mx/lib\libpic32.a(vector11.o)
                0x9fc01360                __vector_dispatch_11
                0x00000001                ASSERT (((_vector_spacing == 0x0) || (SIZEOF (.vector_11) <= (_vector_spacing << 0x5))), function at exception vector 11 too large)

.vector_12      0x9fc01380        0x8
 *(.vector_12)
 .vector_12     0x9fc01380        0x8 c:/program files (x86)/microchip/xc32/v1.44/bin/bin/../../lib/gcc/pic32mx/4.8.3/../../../../pic32mx/lib\libpic32.a(vector12.o)
                0x9fc01380                __vector_dispatch_12
                0x00000001                ASSERT (((_vector_spacing == 0x0) || (SIZEOF (.vector_12) <= (_vector_spacing << 0x5))), function at exception vector 12 too large)

.vector_13      0x9fc013a0        0x8
 *(.vector_13)
 .vector_13     0x9fc013a0        0x8 c:/program files (x86)/microchip/xc32/v1.44/bin/bin/../../lib/gcc/pic32mx/4.8.3/../../../../pic32mx/lib\libpic32.a(vector13.o)
                0x9fc013a0                __vector_dispatch_13
                0x00000001                ASSERT (((_vector_spacing == 0x0) || (SIZEOF (.vector_13) <= (_vector_spacing << 0x5))), function at exception vector 13 too large)

.vector_14      0x9fc013c0        0x8
 *(.vector_14)
 .vector_14     0x9fc013c0        0x8 c:/program files (x86)/microchip/xc32/v1.44/bin/bin/../../lib/gcc/pic32mx/4.8.3/../../../../pic32mx/lib\libpic32.a(vector14.o)
                0x9fc013c0                __vector_dispatch_14
                0x00000001                ASSERT (((_vector_spacing == 0x0) || (SIZEOF (.vector_14) <= (_vector_spacing << 0x5))), function at exception vector 14 too large)

.vector_15      0x9fc013e0        0x8
 *(.vector_15)
 .vector_15     0x9fc013e0        0x8 c:/program files (x86)/microchip/xc32/v1.44/bin/bin/../../lib/gcc/pic32mx/4.8.3/../../../../pic32mx/lib\libpic32.a(vector15.o)
                0x9fc013e0                __vector_dispatch_15
                0x00000001                ASSERT (((_vector_spacing == 0x0) || (SIZEOF (.vector_15) <= (_vector_spacing << 0x5))), function at exception vector 15 too large)

.vector_16      0x9fc01400        0x8
 *(.vector_16)
 .vector_16     0x9fc01400        0x8 c:/program files (x86)/microchip/xc32/v1.44/bin/bin/../../lib/gcc/pic32mx/4.8.3/../../../../pic32mx/lib\libpic32.a(vector16.o)
                0x9fc01400                __vector_dispatch_16
                0x00000001                ASSERT (((_vector_spacing == 0x0) || (SIZEOF (.vector_16) <= (_vector_spacing << 0x5))), function at exception vector 16 too large)

.vector_17      0x9fc01420        0x8
 *(.vector_17)
 .vector_17     0x9fc01420        0x8 c:/program files (x86)/microchip/xc32/v1.44/bin/bin/../../lib/gcc/pic32mx/4.8.3/../../../../pic32mx/lib\libpic32.a(vector17.o)
                0x9fc01420                __vector_dispatch_17
                0x00000001                ASSERT (((_vector_spacing == 0x0) || (SIZEOF (.vector_17) <= (_vector_spacing << 0x5))), function at exception vector 17 too large)

.vector_18      0x9fc01440        0x8
 *(.vector_18)
 .vector_18     0x9fc01440        0x8 c:/program files (x86)/microchip/xc32/v1.44/bin/bin/../../lib/gcc/pic32mx/4.8.3/../../../../pic32mx/lib\libpic32.a(vector18.o)
                0x9fc01440                __vector_dispatch_18
                0x00000001                ASSERT (((_vector_spacing == 0x0) || (SIZEOF (.vector_18) <= (_vector_spacing << 0x5))), function at exception vector 18 too large)

.vector_19      0x9fc01460        0x8
 *(.vector_19)
 .vector_19     0x9fc01460        0x8 c:/program files (x86)/microchip/xc32/v1.44/bin/bin/../../lib/gcc/pic32mx/4.8.3/../../../../pic32mx/lib\libpic32.a(vector19.o)
                0x9fc01460                __vector_dispatch_19
                0x00000001                ASSERT (((_vector_spacing == 0x0) || (SIZEOF (.vector_19) <= (_vector_spacing << 0x5))), function at exception vector 19 too large)

.vector_20      0x9fc01480        0x8
 *(.vector_20)
 .vector_20     0x9fc01480        0x8 c:/program files (x86)/microchip/xc32/v1.44/bin/bin/../../lib/gcc/pic32mx/4.8.3/../../../../pic32mx/lib\libpic32.a(vector20.o)
                0x9fc01480                __vector_dispatch_20
                0x00000001                ASSERT (((_vector_spacing == 0x0) || (SIZEOF (.vector_20) <= (_vector_spacing << 0x5))), function at exception vector 20 too large)

.vector_21      0x9fc014a0        0x8
 *(.vector_21)
 .vector_21     0x9fc014a0        0x8 c:/program files (x86)/microchip/xc32/v1.44/bin/bin/../../lib/gcc/pic32mx/4.8.3/../../../../pic32mx/lib\libpic32.a(vector21.o)
                0x9fc014a0                __vector_dispatch_21
                0x00000001                ASSERT (((_vector_spacing == 0x0) || (SIZEOF (.vector_21) <= (_vector_spacing << 0x5))), function at exception vector 21 too large)

.vector_22      0x9fc014c0        0x8
 *(.vector_22)
 .vector_22     0x9fc014c0        0x8 c:/program files (x86)/microchip/xc32/v1.44/bin/bin/../../lib/gcc/pic32mx/4.8.3/../../../../pic32mx/lib\libpic32.a(vector22.o)
                0x9fc014c0                __vector_dispatch_22
                0x00000001                ASSERT (((_vector_spacing == 0x0) || (SIZEOF (.vector_22) <= (_vector_spacing << 0x5))), function at exception vector 22 too large)

.vector_23      0x9fc014e0        0x8
 *(.vector_23)
 .vector_23     0x9fc014e0        0x8 c:/program files (x86)/microchip/xc32/v1.44/bin/bin/../../lib/gcc/pic32mx/4.8.3/../../../../pic32mx/lib\libpic32.a(vector23.o)
                0x9fc014e0                __vector_dispatch_23
                0x00000001                ASSERT (((_vector_spacing == 0x0) || (SIZEOF (.vector_23) <= (_vector_spacing << 0x5))), function at exception vector 23 too large)

.vector_24      0x9fc01500        0x8
 *(.vector_24)
 .vector_24     0x9fc01500        0x8 build/default/production/_ext/8382566/uart_drv.o
                0x9fc01500                __vector_dispatch_24
                0x00000001                ASSERT (((_vector_spacing == 0x0) || (SIZEOF (.vector_24) <= (_vector_spacing << 0x5))), function at exception vector 24 too large)

.vector_25      0x9fc01520        0x8
 *(.vector_25)
 .vector_25     0x9fc01520        0x8 c:/program files (x86)/microchip/xc32/v1.44/bin/bin/../../lib/gcc/pic32mx/4.8.3/../../../../pic32mx/lib\libpic32.a(vector25.o)
                0x9fc01520                __vector_dispatch_25
                0x00000001                ASSERT (((_vector_spacing == 0x0) || (SIZEOF (.vector_25) <= (_vector_spacing << 0x5))), function at exception vector 25 too large)

.vector_26      0x9fc01540        0x8
 *(.vector_26)
 .vector_26     0x9fc01540        0x8 c:/program files (x86)/microchip/xc32/v1.44/bin/bin/../../lib/gcc/pic32mx/4.8.3/../../../../pic32mx/lib\libpic32.a(vector26.o)
                0x9fc01540                __vector_dispatch_26
                0x00000001                ASSERT (((_vector_spacing == 0x0) || (SIZEOF (.vector_26) <= (_vector_spacing << 0x5))), function at exception vector 26 too large)

.vector_27      0x9fc01560        0x8
 *(.vector_27)
 .vector_27     0x9fc01560        0x8 c:/program files (x86)/microchip/xc32/v1.44/bin/bin/../../lib/gcc/pic32mx/4.8.3/../../../../pic32mx/lib\libpic32.a(vector27.o)
                0x9fc01560                __vector_dispatch_27
                0x00000001                ASSERT (((_vector_spacing == 0x0) || (SIZEOF (.vector_27) <= (_vector_spacing << 0x5))), function at exception vector 27 too large)

.vector_28      0x9fc01580        0x8
 *(.vector_28)
 .vector_28     0x9fc01580        0x8 c:/program files (x86)/microchip/xc32/v1.44/bin/bin/../../lib/gcc/pic32mx/4.8.3/../../../../pic32mx/lib\libpic32.a(vector28.o)
                0x9fc01580                __vector_dispatch_28
                0x00000001                ASSERT (((_vector_spacing == 0x0) || (SIZEOF (.vector_28) <= (_vector_spacing << 0x5))), function at exception vector 28 too large)

.vector_29      0x9fc015a0        0x8
 *(.vector_29)
 .vector_29     0x9fc015a0        0x8 c:/program files (x86)/microchip/xc32/v1.44/bin/bin/../../lib/gcc/pic32mx/4.8.3/../../../../pic32mx/lib\libpic32.a(vector29.o)
                0x9fc015a0                __vector_dispatch_29
                0x00000001                ASSERT (((_vector_spacing == 0x0) || (SIZEOF (.vector_29) <= (_vector_spacing << 0x5))), function at exception vector 29 too large)

.vector_30      0x9fc015c0        0x8
 *(.vector_30)
 .vector_30     0x9fc015c0        0x8 c:/program files (x86)/microchip/xc32/v1.44/bin/bin/../../lib/gcc/pic32mx/4.8.3/../../../../pic32mx/lib\libpic32.a(vector30.o)
                0x9fc015c0                __vector_dispatch_30
                0x00000001                ASSERT (((_vector_spacing == 0x0) || (SIZEOF (.vector_30) <= (_vector_spacing << 0x5))), function at exception vector 30 too large)

.vector_31      0x9fc015e0        0x8
 *(.vector_31)
 .vector_31     0x9fc015e0        0x8 c:/program files (x86)/microchip/xc32/v1.44/bin/bin/../../lib/gcc/pic32mx/4.8.3/../../../../pic32mx/lib\libpic32.a(vector31.o)
                0x9fc015e0                __vector_dispatch_31
                0x00000001                ASSERT (((_vector_spacing == 0x0) || (SIZEOF (.vector_31) <= (_vector_spacing << 0x5))), function at exception vector 31 too large)

.vector_32      0x9fc01600        0x8
 *(.vector_32)
 .vector_32     0x9fc01600        0x8 build/default/production/_ext/8382566/uart_drv.o
                0x9fc01600                __vector_dispatch_32
                0x00000001                ASSERT (((_vector_spacing == 0x0) || (SIZEOF (.vector_32) <= (_vector_spacing << 0x5))), function at exception vector 32 too large)

.vector_33      0x9fc01620        0x8
 *(.vector_33)
 .vector_33     0x9fc01620        0x8 c:/program files (x86)/microchip/xc32/v1.44/bin/bin/../../lib/gcc/pic32mx/4.8.3/../../../../pic32mx/lib\libpic32.a(vector33.o)
                0x9fc01620                __vector_dispatch_33
                0x00000001                ASSERT (((_vector_spacing == 0x0) || (SIZEOF (.vector_33) <= (_vector_spacing << 0x5))), function at exception vector 33 too large)

.vector_34      0x9fc01640        0x8
 *(.vector_34)
 .vector_34     0x9fc01640        0x8 c:/program files (x86)/microchip/xc32/v1.44/bin/bin/../../lib/gcc/pic32mx/4.8.3/../../../../pic32mx/lib\libpic32.a(vector34.o)
                0x9fc01640                __vector_dispatch_34
                0x00000001                ASSERT (((_vector_spacing == 0x0) || (SIZEOF (.vector_34) <= (_vector_spacing << 0x5))), function at exception vector 34 too large)

.vector_35      0x9fc01660        0x8
 *(.vector_35)
 .vector_35     0x9fc01660        0x8 c:/program files (x86)/microchip/xc32/v1.44/bin/bin/../../lib/gcc/pic32mx/4.8.3/../../../../pic32mx/lib\libpic32.a(vector35.o)
                0x9fc01660                __vector_dispatch_35
                0x00000001                ASSERT (((_vector_spacing == 0x0) || (SIZEOF (.vector_35) <= (_vector_spacing << 0x5))), function at exception vector 35 too large)

.vector_36      0x9fc01680        0x8
 *(.vector_36)
 .vector_36     0x9fc01680        0x8 c:/program files (x86)/microchip/xc32/v1.44/bin/bin/../../lib/gcc/pic32mx/4.8.3/../../../../pic32mx/lib\libpic32.a(vector36.o)
                0x9fc01680                __vector_dispatch_36
                0x00000001                ASSERT (((_vector_spacing == 0x0) || (SIZEOF (.vector_36) <= (_vector_spacing << 0x5))), function at exception vector 36 too large)

.vector_37      0x9fc016a0        0x8
 *(.vector_37)
 .vector_37     0x9fc016a0        0x8 c:/program files (x86)/microchip/xc32/v1.44/bin/bin/../../lib/gcc/pic32mx/4.8.3/../../../../pic32mx/lib\libpic32.a(vector37.o)
                0x9fc016a0                __vector_dispatch_37
                0x00000001                ASSERT (((_vector_spacing == 0x0) || (SIZEOF (.vector_37) <= (_vector_spacing << 0x5))), function at exception vector 37 too large)

.vector_38      0x9fc016c0        0x8
 *(.vector_38)
 .vector_38     0x9fc016c0        0x8 c:/program files (x86)/microchip/xc32/v1.44/bin/bin/../../lib/gcc/pic32mx/4.8.3/../../../../pic32mx/lib\libpic32.a(vector38.o)
                0x9fc016c0                __vector_dispatch_38
                0x00000001                ASSERT (((_vector_spacing == 0x0) || (SIZEOF (.vector_38) <= (_vector_spacing << 0x5))), function at exception vector 38 too large)

.vector_39      0x9fc016e0        0x8
 *(.vector_39)
 .vector_39     0x9fc016e0        0x8 c:/program files (x86)/microchip/xc32/v1.44/bin/bin/../../lib/gcc/pic32mx/4.8.3/../../../../pic32mx/lib\libpic32.a(vector39.o)
                0x9fc016e0                __vector_dispatch_39
                0x00000001                ASSERT (((_vector_spacing == 0x0) || (SIZEOF (.vector_39) <= (_vector_spacing << 0x5))), function at exception vector 39 too large)

.vector_40      0x9fc01700        0x8
 *(.vector_40)
 .vector_40     0x9fc01700        0x8 c:/program files (x86)/microchip/xc32/v1.44/bin/bin/../../lib/gcc/pic32mx/4.8.3/../../../../pic32mx/lib\libpic32.a(vector40.o)
                0x9fc01700                __vector_dispatch_40
                0x00000001                ASSERT (((_vector_spacing == 0x0) || (SIZEOF (.vector_40) <= (_vector_spacing << 0x5))), function at exception vector 40 too large)

.vector_41      0x9fc01720        0x8
 *(.vector_41)
 .vector_41     0x9fc01720        0x8 c:/program files (x86)/microchip/xc32/v1.44/bin/bin/../../lib/gcc/pic32mx/4.8.3/../../../../pic32mx/lib\libpic32.a(vector41.o)
                0x9fc01720                __vector_dispatch_41
                0x00000001                ASSERT (((_vector_spacing == 0x0) || (SIZEOF (.vector_41) <= (_vector_spacing << 0x5))), function at exception vector 41 too large)

.vector_42      0x9fc01740        0x8
 *(.vector_42)
 .vector_42     0x9fc01740        0x8 c:/program files (x86)/microchip/xc32/v1.44/bin/bin/../../lib/gcc/pic32mx/4.8.3/../../../../pic32mx/lib\libpic32.a(vector42.o)
                0x9fc01740                __vector_dispatch_42
                0x00000001                ASSERT (((_vector_spacing == 0x0) || (SIZEOF (.vector_42) <= (_vector_spacing << 0x5))), function at exception vector 42 too large)

.vector_43      0x9fc01760        0x8
 *(.vector_43)
 .vector_43     0x9fc01760        0x8 c:/program files (x86)/microchip/xc32/v1.44/bin/bin/../../lib/gcc/pic32mx/4.8.3/../../../../pic32mx/lib\libpic32.a(vector43.o)
                0x9fc01760                __vector_dispatch_43
                0x00000001                ASSERT (((_vector_spacing == 0x0) || (SIZEOF (.vector_43) <= (_vector_spacing << 0x5))), function at exception vector 43 too large)

.vector_44      0x9fc01780        0x8
 *(.vector_44)
 .vector_44     0x9fc01780        0x8 c:/program files (x86)/microchip/xc32/v1.44/bin/bin/../../lib/gcc/pic32mx/4.8.3/../../../../pic32mx/lib\libpic32.a(vector44.o)
                0x9fc01780                __vector_dispatch_44
                0x00000001                ASSERT (((_vector_spacing == 0x0) || (SIZEOF (.vector_44) <= (_vector_spacing << 0x5))), function at exception vector 44 too large)

.vector_45      0x9fc017a0        0x8
 *(.vector_45)
 .vector_45     0x9fc017a0        0x8 c:/program files (x86)/microchip/xc32/v1.44/bin/bin/../../lib/gcc/pic32mx/4.8.3/../../../../pic32mx/lib\libpic32.a(vector45.o)
                0x9fc017a0                __vector_dispatch_45
                0x00000001                ASSERT (((_vector_spacing == 0x0) || (SIZEOF (.vector_45) <= (_vector_spacing << 0x5))), function at exception vector 45 too large)

.vector_46      0x9fc017c0        0x8
 *(.vector_46)
 .vector_46     0x9fc017c0        0x8 c:/program files (x86)/microchip/xc32/v1.44/bin/bin/../../lib/gcc/pic32mx/4.8.3/../../../../pic32mx/lib\libpic32.a(vector46.o)
                0x9fc017c0                __vector_dispatch_46
                0x00000001                ASSERT (((_vector_spacing == 0x0) || (SIZEOF (.vector_46) <= (_vector_spacing << 0x5))), function at exception vector 46 too large)

.vector_47      0x9fc017e0        0x8
 *(.vector_47)
 .vector_47     0x9fc017e0        0x8 c:/program files (x86)/microchip/xc32/v1.44/bin/bin/../../lib/gcc/pic32mx/4.8.3/../../../../pic32mx/lib\libpic32.a(vector47.o)
                0x9fc017e0                __vector_dispatch_47
                0x00000001                ASSERT (((_vector_spacing == 0x0) || (SIZEOF (.vector_47) <= (_vector_spacing << 0x5))), function at exception vector 47 too large)

.vector_48      0x9fc01800        0x8
 *(.vector_48)
 .vector_48     0x9fc01800        0x8 c:/program files (x86)/microchip/xc32/v1.44/bin/bin/../../lib/gcc/pic32mx/4.8.3/../../../../pic32mx/lib\libpic32.a(vector48.o)
                0x9fc01800                __vector_dispatch_48
                0x00000001                ASSERT (((_vector_spacing == 0x0) || (SIZEOF (.vector_48) <= (_vector_spacing << 0x5))), function at exception vector 48 too large)

.vector_49      0x9fc01820        0x8
 *(.vector_49)
 .vector_49     0x9fc01820        0x8 c:/program files (x86)/microchip/xc32/v1.44/bin/bin/../../lib/gcc/pic32mx/4.8.3/../../../../pic32mx/lib\libpic32.a(vector49.o)
                0x9fc01820                __vector_dispatch_49
                0x00000001                ASSERT (((_vector_spacing == 0x0) || (SIZEOF (.vector_49) <= (_vector_spacing << 0x5))), function at exception vector 49 too large)

.vector_50      0x9fc01840        0x8
 *(.vector_50)
 .vector_50     0x9fc01840        0x8 c:/program files (x86)/microchip/xc32/v1.44/bin/bin/../../lib/gcc/pic32mx/4.8.3/../../../../pic32mx/lib\libpic32.a(vector50.o)
                0x9fc01840                __vector_dispatch_50
                0x00000001                ASSERT (((_vector_spacing == 0x0) || (SIZEOF (.vector_50) <= (_vector_spacing << 0x5))), function at exception vector 50 too large)

.vector_51      0x9fc01860        0x8
 *(.vector_51)
 .vector_51     0x9fc01860        0x8 c:/program files (x86)/microchip/xc32/v1.44/bin/bin/../../lib/gcc/pic32mx/4.8.3/../../../../pic32mx/lib\libpic32.a(vector51.o)
                0x9fc01860                __vector_dispatch_51
                0x00000001                ASSERT (((_vector_spacing == 0x0) || (SIZEOF (.vector_51) <= (_vector_spacing << 0x5))), function at exception vector 51 too large)

.vector_52      0x9fc01880        0x0
 *(.vector_52)
                0x00000001                ASSERT (((_vector_spacing == 0x0) || (SIZEOF (.vector_52) <= (_vector_spacing << 0x5))), function at exception vector 52 too large)

.vector_53      0x9fc018a0        0x0
 *(.vector_53)
                0x00000001                ASSERT (((_vector_spacing == 0x0) || (SIZEOF (.vector_53) <= (_vector_spacing << 0x5))), function at exception vector 53 too large)

.vector_54      0x9fc018c0        0x0
 *(.vector_54)
                0x00000001                ASSERT (((_vector_spacing == 0x0) || (SIZEOF (.vector_54) <= (_vector_spacing << 0x5))), function at exception vector 54 too large)

.vector_55      0x9fc018e0        0x0
 *(.vector_55)
                0x00000001                ASSERT (((_vector_spacing == 0x0) || (SIZEOF (.vector_55) <= (_vector_spacing << 0x5))), function at exception vector 55 too large)

.vector_56      0x9fc01900        0x0
 *(.vector_56)
                0x00000001                ASSERT (((_vector_spacing == 0x0) || (SIZEOF (.vector_56) <= (_vector_spacing << 0x5))), function at exception vector 56 too large)

.vector_57      0x9fc01920        0x0
 *(.vector_57)
                0x00000001                ASSERT (((_vector_spacing == 0x0) || (SIZEOF (.vector_57) <= (_vector_spacing << 0x5))), function at exception vector 57 too large)

.vector_58      0x9fc01940        0x0
 *(.vector_58)
                0x00000001                ASSERT (((_vector_spacing == 0x0) || (SIZEOF (.vector_58) <= (_vector_spacing << 0x5))), function at exception vector 58 too large)

.vector_59      0x9fc01960        0x0
 *(.vector_59)
                0x00000001                ASSERT (((_vector_spacing == 0x0) || (SIZEOF (.vector_59) <= (_vector_spacing << 0x5))), function at exception vector 59 too large)

.vector_60      0x9fc01980        0x0
 *(.vector_60)
                0x00000001                ASSERT (((_vector_spacing == 0x0) || (SIZEOF (.vector_60) <= (_vector_spacing << 0x5))), function at exception vector 60 too large)

.vector_61      0x9fc019a0        0x0
 *(.vector_61)
                0x00000001                ASSERT (((_vector_spacing == 0x0) || (SIZEOF (.vector_61) <= (_vector_spacing << 0x5))), function at exception vector 61 too large)

.vector_62      0x9fc019c0        0x0
 *(.vector_62)
                0x00000001                ASSERT (((_vector_spacing == 0x0) || (SIZEOF (.vector_62) <= (_vector_spacing << 0x5))), function at exception vector 62 too large)

.vector_63      0x9fc019e0        0x0
 *(.vector_63)
                0x00000001                ASSERT (((_vector_spacing == 0x0) || (SIZEOF (.vector_63) <= (_vector_spacing << 0x5))), function at exception vector 63 too large)

.startup
 *(.startup)

.text           0x9d000000        0x0
 *(.stub .gnu.linkonce.t.*)
 *(.text.*personality*)
 *(.mips16.fn.*)
 *(.mips16.call.*)
 *(.gnu.warning)
                0x9d000000                . = ALIGN (0x4)

.init           0x9d000000        0x0
 *crti.o(.init)
 *crtbegin.o(.init)
 *(EXCLUDE_FILE(*crtn.o *crtend?.o *crtend.o) .init)
 *crtend.o(.init)
 *crtn.o(.init)
                0x9d000000                . = ALIGN (0x4)

.fini           0x9d000000        0x0
 *(.fini)
                0x9d000000                . = ALIGN (0x4)

.preinit_array  0x9d000000        0x0
                0x9d000000                PROVIDE (__preinit_array_start, .)
 *(.preinit_array)
                0x9d000000                PROVIDE (__preinit_array_end, .)
                0x9d000000                . = ALIGN (0x4)

.init_array     0x9d000000        0x0
                0x9d000000                PROVIDE (__init_array_start, .)
 *(SORT(.init_array.*))
 *(.init_array)
                0x9d000000                PROVIDE (__init_array_end, .)
                0x9d000000                . = ALIGN (0x4)

.fini_array     0x9d000000        0x0
                0x9d000000                PROVIDE (__fini_array_start, .)
 *(SORT(.fini_array.*))
 *(.fini_array)
                0x9d000000                PROVIDE (__fini_array_end, .)
                0x9d000000                . = ALIGN (0x4)

.ctors          0x9d000000        0x0
 *crtbegin.o(.ctors)
 *crtbegin?.o(.ctors)
 *(EXCLUDE_FILE(*crtend?.o *crtend.o) .ctors)
 *(SORT(.ctors.*))
 *(.ctors)
                0x9d000000                . = ALIGN (0x4)

.dtors          0x9d000000        0x0
 *crtbegin.o(.dtors)
 *crtbegin?.o(.dtors)
 *(EXCLUDE_FILE(*crtend?.o *crtend.o) .dtors)
 *(SORT(.dtors.*))
 *(.dtors)
                0x9d000000                . = ALIGN (0x4)

.rodata         0x9d000000        0x0
 *(.gnu.linkonce.r.*)
 *(.rodata1)
                0x9d000000                . = ALIGN (0x4)

.sdata2         0x9fc00490        0x0
 *(.sdata2 .sdata2.* .gnu.linkonce.s2.*)
                0x9fc00490                . = ALIGN (0x4)

.sbss2          0x9fc00490        0x0
 *(.sbss2 .sbss2.* .gnu.linkonce.sb2.*)
                0x9fc00490                . = ALIGN (0x4)

.eh_frame_hdr
 *(.eh_frame_hdr)
                0x9fc00490                . = ALIGN (0x4)

.eh_frame
 *(.eh_frame)
                0x9fc00490                . = ALIGN (0x4)

.gcc_except_table
 *(.gcc_except_table .gcc_except_table.*)
                0x9fc00490                . = ALIGN (0x4)

.dbg_data       0xa0000000        0x0
                0xa0000000                . = (. + DEFINED (_DEBUGGER)?0x200:0x0)

.jcr            0xa0000000        0x0
 *(.jcr)
                0xa0000000                . = ALIGN (0x4)

.eh_frame
 *(.eh_frame)
                0xa0000000                . = ALIGN (0x4)

.gcc_except_table
 *(.gcc_except_table .gcc_except_table.*)
                0xa0000000                . = ALIGN (0x4)

.persist        0xa0000000        0x0
                0xa0000000                _persist_begin = .
 *(.persist .persist.*)
 *(.pbss .pbss.*)
                0xa0000000                . = ALIGN (0x4)
                0xa0000000                _persist_end = .

.data           0xa0000000        0x0
 *(.gnu.linkonce.d.*)
 *(.data1)
                0xa0000000                . = ALIGN (0x4)
                0xa0000000                . = .
                0xa0007ff0                _gp = (ALIGN (0x10) + 0x7ff0)

.got            0xa0000000        0x0
 *(.got.plt)
 *(.got)
                0xa0000000                . = ALIGN (0x4)

.sdata          0xa0000000       0x14
                0xa0000000                _sdata_begin = .
 *(.sdata .sdata.* .gnu.linkonce.s.*)
 .sdata         0xa0000000        0x8 build/default/production/_ext/449926602/bm_application_mode.o
                0xa0000000                appCmdPkt
 .sdata         0xa0000008        0x8 build/default/production/_ext/449926602/interface.o
                0xa000000c                ble_uart_send_sync
 .sdata         0xa0000010        0x4 c:/program files (x86)/microchip/xc32/v1.44/bin/bin/../../lib/gcc/pic32mx/4.8.3/../../../../pic32mx/lib\libpic32.a(xc32_uart.o)
                0xa0000010                __XC_UART
                0xa0000014                . = ALIGN (0x4)
                0xa0000014                _sdata_end = .

.lit8
 *(.lit8)

.lit4
 *(.lit4)
                0xa0000014                . = ALIGN (0x4)
                0xa0000014                _data_end = .
                0xa0000014                _bss_begin = .

.sbss           0xa0000014       0x88
                0xa0000014                _sbss_begin = .
 *(.dynsbss)
 *(.sbss .sbss.* .gnu.linkonce.sb.*)
 .sbss          0xa0000014        0x4 build/default/production/_ext/449926602/ble_api.o
                0xa0000014                application_cmdpkt
 .sbss          0xa0000018        0x4 build/default/production/_ext/449926602/ble_manager.o
                0xa0000018                ble_mgr_state
 .sbss          0xa000001c       0x10 build/default/production/_ext/449926602/bm_application_mode.o
                0xa0000028                appByteTimeout
 .sbss          0xa000002c       0x10 build/default/production/_ext/449926602/bm_program_mode.o
 .sbss          0xa000003c        0x8 build/default/production/_ext/449926602/dfu_api.o
                0xa000003c                program_cmdpkt
 .sbss          0xa0000044       0x18 build/default/production/_ext/449926602/interface.o
 .sbss          0xa000005c        0xc build/default/production/_ext/449926602/platform_pic.o
 .sbss          0xa0000068       0x10 build/default/production/_ext/8382566/time.o
 *(.scommon)
 .scommon       0xa0000078        0x4 build/default/production/_ext/449926602/ble_manager.o
                0xa0000078                g_index
                0xa000007a                g_dataLen
 .scommon       0xa000007c        0x8 build/default/production/_ext/449926602/interface.o
                0xa000007c                ble_uart_receive_async
                0xa0000080                platform
 .scommon       0xa0000084       0x14 build/default/production/_ext/449926602/memory.o
                0xa0000084                mem_pool_base_addr
                0xa0000088                max_count
                0xa000008c                mem_pool_size
                0xa0000090                tail
                0xa0000094                head
 .scommon       0xa0000098        0x4 build/default/production/_ext/8382566/time.o
                0xa0000098                TimeCallback
                0xa000009c                _sbss_end = .
                0xa000009c                . = ALIGN (0x4)

.bss            0xa000009c      0xa78
 *(.dynbss)
 *(COMMON)
 COMMON         0xa000009c      0x677 build/default/production/_ext/449926602/ble_manager.o
                0xa000009c                event_mem
                0xa0000114                event_payload
                0xa0000514                g_tmpBuffer
 *fill*         0xa0000713        0x1 
 COMMON         0xa0000714      0x3ff build/default/production/_ext/449926602/bm_application_mode.o
                0xa0000714                appRspData
                0xa0000914                appDataCmdPkt
                0xa0000b14                . = ALIGN ((. != 0x0)?0x4:0x1)
 *fill*         0xa0000b13        0x1 
                0xa0000b14                . = ALIGN (0x4)
                0xa0000b14                _end = .
                0xa0000b14                _bss_end = .
                0x00020000                _bmxdudba_address = 0x20000
                0x00020000                _bmxdupba_address = 0x20000

/DISCARD/
 *(.pdr)
 *(.rel.dyn)
 *(.note.GNU-stack)
 *(.note.GNU-stack)
 *(.gnu_debuglink)
 *(.gnu.lto_*)
 *(.discard)

.gptab.sdata
 *(.gptab.data)
 *(.gptab.sdata)

.gptab.sbss
 *(.gptab.bss)
 *(.gptab.sbss)

.mdebug.abi32   0xa0000b14        0x0
 *(.mdebug.abi32)
 .mdebug.abi32  0xa0000b14        0x0 build/default/production/_ext/449926602/ble_api.o
 .mdebug.abi32  0xa0000b14        0x0 build/default/production/_ext/449926602/ble_manager.o
 .mdebug.abi32  0xa0000b14        0x0 build/default/production/_ext/449926602/bm_application_mode.o
 .mdebug.abi32  0xa0000b14        0x0 build/default/production/_ext/449926602/bm_program_mode.o
 .mdebug.abi32  0xa0000b14        0x0 build/default/production/_ext/449926602/bm_utils.o
 .mdebug.abi32  0xa0000b14        0x0 build/default/production/_ext/449926602/dfu_api.o
 .mdebug.abi32  0xa0000b14        0x0 build/default/production/_ext/449926602/dfu_manager.o
 .mdebug.abi32  0xa0000b14        0x0 build/default/production/_ext/449926602/event_mem.o
 .mdebug.abi32  0xa0000b14        0x0 build/default/production/_ext/449926602/fifo.o
 .mdebug.abi32  0xa0000b14        0x0 build/default/production/_ext/449926602/interface.o
 .mdebug.abi32  0xa0000b14        0x0 build/default/production/_ext/449926602/memory.o
 .mdebug.abi32  0xa0000b14        0x0 build/default/production/_ext/449926602/platform_pic.o
 .mdebug.abi32  0xa0000b14        0x0 build/default/production/_ext/1819808422/clear_core_sw0_leg_lib.o
 .mdebug.abi32  0xa0000b14        0x0 build/default/production/_ext/1819808422/clear_core_sw0_lib.o
 .mdebug.abi32  0xa0000b14        0x0 build/default/production/_ext/1819808422/clear_core_sw1_leg_lib.o
 .mdebug.abi32  0xa0000b14        0x0 build/default/production/_ext/1819808422/clear_core_sw1_lib.o
 .mdebug.abi32  0xa0000b14        0x0 build/default/production/_ext/1819808422/int_configure_system_lib.o
 .mdebug.abi32  0xa0000b14        0x0 build/default/production/_ext/1819808422/int_disable_interrupts_lib.o
 .mdebug.abi32  0xa0000b14        0x0 build/default/production/_ext/1819808422/int_enable_interrupts_lib.o
 .mdebug.abi32  0xa0000b14        0x0 build/default/production/_ext/1819808422/int_enable_mv_int_lib.o
 .mdebug.abi32  0xa0000b14        0x0 build/default/production/_ext/1819808422/int_enable_sv_int_lib.o
 .mdebug.abi32  0xa0000b14        0x0 build/default/production/_ext/1819808422/int_get_pending_int_lib.o
 .mdebug.abi32  0xa0000b14        0x0 build/default/production/_ext/1819808422/int_restore_interrupts_lib.o
 .mdebug.abi32  0xa0000b14        0x0 build/default/production/_ext/1819808422/int_set_ebase_lib.o
 .mdebug.abi32  0xa0000b14        0x0 build/default/production/_ext/1819808422/int_set_ebase_vs_lib.o
 .mdebug.abi32  0xa0000b14        0x0 build/default/production/_ext/1819808422/int_set_vector_spacing_lib.o
 .mdebug.abi32  0xa0000b14        0x0 build/default/production/_ext/1819808422/int_tbl_5xx_6xx_7xx_lib.o
 .mdebug.abi32  0xa0000b14        0x0 build/default/production/_ext/1819808422/int_tbl_legacy_lib.o
 .mdebug.abi32  0xa0000b14        0x0 build/default/production/_ext/1819808422/int_tbl_lib.o
 .mdebug.abi32  0xa0000b14        0x0 build/default/production/_ext/1819808422/int_tbl_lib_obs.o
 .mdebug.abi32  0xa0000b14        0x0 build/default/production/_ext/1819808422/set_core_sw0_leg_lib.o
 .mdebug.abi32  0xa0000b14        0x0 build/default/production/_ext/1819808422/set_core_sw0_lib.o
 .mdebug.abi32  0xa0000b14        0x0 build/default/production/_ext/1819808422/set_core_sw1_leg_lib.o
 .mdebug.abi32  0xa0000b14        0x0 build/default/production/_ext/1819808422/set_core_sw1_lib.o
 .mdebug.abi32  0xa0000b14        0x0 build/default/production/_ext/1986190483/pcache.o
 .mdebug.abi32  0xa0000b14        0x0 build/default/production/_ext/2046243727/uart_lib.o
 .mdebug.abi32  0xa0000b14        0x0 build/default/production/_ext/8382566/time.o
 .mdebug.abi32  0xa0000b14        0x0 build/default/production/_ext/8382566/uart_app.o
 .mdebug.abi32  0xa0000b14        0x0 build/default/production/_ext/8382566/uart_drv.o
 .mdebug.abi32  0xa0000b14        0x0 build/default/production/_ext/1472/main.o
 .mdebug.abi32  0xa0000b14        0x0 c:/program files (x86)/microchip/xc32/v1.44/bin/bin/../../lib/gcc/pic32mx/4.8.3/../../../../pic32mx/lib\libpic32.a(default-bootstrap-exception-handler.o)
 .mdebug.abi32  0xa0000b14        0x0 c:/program files (x86)/microchip/xc32/v1.44/bin/bin/../../lib/gcc/pic32mx/4.8.3/../../../../pic32mx/lib\libpic32.a(default-on-reset.o)
 .mdebug.abi32  0xa0000b14        0x0 c:/program files (x86)/microchip/xc32/v1.44/bin/bin/../../lib/gcc/pic32mx/4.8.3/../../../../pic32mx/lib\libpic32.a(default-on-bootstrap.o)
 .mdebug.abi32  0xa0000b14        0x0 c:/program files (x86)/microchip/xc32/v1.44/bin/bin/../../lib/gcc/pic32mx/4.8.3/../../../../pic32mx/lib\libpic32.a(default-general-exception-handler.o)
 .mdebug.abi32  0xa0000b14        0x0 c:/program files (x86)/microchip/xc32/v1.44/bin/bin/../../lib/gcc/pic32mx/4.8.3/../../../../pic32mx/lib\libpic32.a(defaultinterrupt.o)
 .mdebug.abi32  0xa0000b14        0x0 c:/program files (x86)/microchip/xc32/v1.44/bin/bin/../../lib/gcc/pic32mx/4.8.3/../../../../pic32mx/lib\libc.a(printf_cdnopuxX.eo)
 .mdebug.abi32  0xa0000b14        0x0 c:/program files (x86)/microchip/xc32/v1.44/bin/bin/../../lib/gcc/pic32mx/4.8.3/../../../../pic32mx/lib\libc.a(_iob.o)
 .mdebug.abi32  0xa0000b14        0x0 c:/program files (x86)/microchip/xc32/v1.44/bin/bin/../../lib/gcc/pic32mx/4.8.3/../../../../pic32mx/lib\libc.a(doprnt_cdnopuxX.eo)
 .mdebug.abi32  0xa0000b14        0x0 c:/program files (x86)/microchip/xc32/v1.44/bin/bin/../../lib/gcc/pic32mx/4.8.3/../../../../pic32mx/lib\libc.a(_fputc_simple.o)
 .mdebug.abi32  0xa0000b14        0x0 c:/program files (x86)/microchip/xc32/v1.44/bin/bin/../../lib/gcc/pic32mx/4.8.3/../../../../pic32mx/lib\libc.a(ctype.o)
 .mdebug.abi32  0xa0000b14        0x0 c:/program files (x86)/microchip/xc32/v1.44/bin/bin/../../lib/gcc/pic32mx/4.8.3/../../../../pic32mx/lib\libc.a(_flsbuf_simple.o)
 .mdebug.abi32  0xa0000b14        0x0 c:/program files (x86)/microchip/xc32/v1.44/bin/bin/../../lib/gcc/pic32mx/4.8.3\libgcc.a(_udivdi3.o)
 .mdebug.abi32  0xa0000b14        0x0 c:/program files (x86)/microchip/xc32/v1.44/bin/bin/../../lib/gcc/pic32mx/4.8.3\libgcc.a(_umoddi3.o)
 .mdebug.abi32  0xa0000b14        0x0 c:/program files (x86)/microchip/xc32/v1.44/bin/bin/../../lib/gcc/pic32mx/4.8.3/../../../../pic32mx/lib\libpic32.a(write.o)
 .mdebug.abi32  0xa0000b14        0x0 c:/program files (x86)/microchip/xc32/v1.44/bin/bin/../../lib/gcc/pic32mx/4.8.3/../../../../pic32mx/lib\libpic32.a(_mon_putc.o)
 .mdebug.abi32  0xa0000b14        0x0 c:/program files (x86)/microchip/xc32/v1.44/bin/bin/../../lib/gcc/pic32mx/4.8.3/../../../../pic32mx/lib\libpic32.a(xc32_uart.o)

.mdebug.abiN32
 *(.mdebug.abiN32)

.mdebug.abi64
 *(.mdebug.abi64)

.mdebug.abiO64
 *(.mdebug.abiO64)

.mdebug.eabi32
 *(.mdebug.eabi32)

.mdebug.eabi64
 *(.mdebug.eabi64)

.gcc_compiled_long32
 *(.gcc_compiled_long32)

.gcc_compiled_long64
 *(.gcc_compiled_long64)

.stab
 *(.stab)

.stabstr
 *(.stabstr)

.stab.excl
 *(.stab.excl)

.stab.exclstr
 *(.stab.exclstr)

.stab.index
 *(.stab.index)

.stab.indexstr
 *(.stab.indexstr)

.comment        0x00000000       0xd3
 *(.comment)
 .comment       0x00000000       0x3c build/default/production/_ext/449926602/ble_api.o
                                 0x3d (size before relaxing)
 .comment       0x00000000       0x3d build/default/production/_ext/449926602/ble_manager.o
 .comment       0x00000000       0x3d build/default/production/_ext/449926602/bm_application_mode.o
 .comment       0x00000000       0x3d build/default/production/_ext/449926602/bm_program_mode.o
 .comment       0x00000000       0x3d build/default/production/_ext/449926602/bm_utils.o
 .comment       0x00000000       0x3d build/default/production/_ext/449926602/dfu_api.o
 .comment       0x00000000       0x3d build/default/production/_ext/449926602/dfu_manager.o
 .comment       0x00000000       0x3d build/default/production/_ext/449926602/event_mem.o
 .comment       0x00000000       0x3d build/default/production/_ext/449926602/fifo.o
 .comment       0x00000000       0x3d build/default/production/_ext/449926602/interface.o
 .comment       0x00000000       0x3d build/default/production/_ext/449926602/memory.o
 .comment       0x00000000       0x3d build/default/production/_ext/449926602/platform_pic.o
 .comment       0x00000000       0x3d build/default/production/_ext/1819808422/clear_core_sw0_leg_lib.o
 .comment       0x00000000       0x3d build/default/production/_ext/1819808422/clear_core_sw0_lib.o
 .comment       0x00000000       0x3d build/default/production/_ext/1819808422/clear_core_sw1_leg_lib.o
 .comment       0x00000000       0x3d build/default/production/_ext/1819808422/clear_core_sw1_lib.o
 .comment       0x00000000       0x3d build/default/production/_ext/1819808422/int_configure_system_lib.o
 .comment       0x00000000       0x3d build/default/production/_ext/1819808422/int_disable_interrupts_lib.o
 .comment       0x00000000       0x3d build/default/production/_ext/1819808422/int_enable_interrupts_lib.o
 .comment       0x00000000       0x3d build/default/production/_ext/1819808422/int_enable_mv_int_lib.o
 .comment       0x00000000       0x3d build/default/production/_ext/1819808422/int_enable_sv_int_lib.o
 .comment       0x00000000       0x3d build/default/production/_ext/1819808422/int_get_pending_int_lib.o
 .comment       0x00000000       0x3d build/default/production/_ext/1819808422/int_restore_interrupts_lib.o
 .comment       0x00000000       0x3d build/default/production/_ext/1819808422/int_set_ebase_lib.o
 .comment       0x00000000       0x3d build/default/production/_ext/1819808422/int_set_ebase_vs_lib.o
 .comment       0x00000000       0x3d build/default/production/_ext/1819808422/int_set_vector_spacing_lib.o
 .comment       0x00000000       0x3d build/default/production/_ext/1819808422/int_tbl_5xx_6xx_7xx_lib.o
 .comment       0x00000000       0x3d build/default/production/_ext/1819808422/int_tbl_legacy_lib.o
 .comment       0x00000000       0x3d build/default/production/_ext/1819808422/int_tbl_lib.o
 .comment       0x00000000       0x3d build/default/production/_ext/1819808422/int_tbl_lib_obs.o
 .comment       0x00000000       0x3d build/default/production/_ext/1819808422/set_core_sw0_leg_lib.o
 .comment       0x00000000       0x3d build/default/production/_ext/1819808422/set_core_sw0_lib.o
 .comment       0x00000000       0x3d build/default/production/_ext/1819808422/set_core_sw1_leg_lib.o
 .comment       0x00000000       0x3d build/default/production/_ext/1819808422/set_core_sw1_lib.o
 .comment       0x00000000       0x3d build/default/production/_ext/1986190483/pcache.o
 .comment       0x00000000       0x3d build/default/production/_ext/2046243727/uart_lib.o
 .comment       0x00000000       0x3d build/default/production/_ext/8382566/time.o
 .comment       0x00000000       0x3d build/default/production/_ext/8382566/uart_app.o
 .comment       0x00000000       0x3d build/default/production/_ext/8382566/uart_drv.o
 .comment       0x00000000       0x3d build/default/production/_ext/1472/main.o
 .comment       0x0000003c       0x18 c:/program files (x86)/microchip/xc32/v1.44/bin/bin/../../lib/gcc/pic32mx/4.8.3/../../../../pic32mx/lib\libpic32.a(memcmp.o)
                                 0x19 (size before relaxing)
 .comment       0x00000054       0x18 c:/program files (x86)/microchip/xc32/v1.44/bin/bin/../../lib/gcc/pic32mx/4.8.3/../../../../pic32mx/lib\libpic32.a(memset.o)
                                 0x19 (size before relaxing)
 .comment       0x0000006c       0x19 c:/program files (x86)/microchip/xc32/v1.44/bin/bin/../../lib/gcc/pic32mx/4.8.3/../../../../pic32mx/lib\libpic32.a(strlen.o)
                                 0x1a (size before relaxing)
 .comment       0x00000000       0x3d c:/program files (x86)/microchip/xc32/v1.44/bin/bin/../../lib/gcc/pic32mx/4.8.3/../../../../pic32mx/lib\libpic32.a(default-bootstrap-exception-handler.o)
 .comment       0x00000000       0x3d c:/program files (x86)/microchip/xc32/v1.44/bin/bin/../../lib/gcc/pic32mx/4.8.3/../../../../pic32mx/lib\libpic32.a(default-on-reset.o)
 .comment       0x00000000       0x3d c:/program files (x86)/microchip/xc32/v1.44/bin/bin/../../lib/gcc/pic32mx/4.8.3/../../../../pic32mx/lib\libpic32.a(default-on-bootstrap.o)
 .comment       0x00000000       0x3d c:/program files (x86)/microchip/xc32/v1.44/bin/bin/../../lib/gcc/pic32mx/4.8.3/../../../../pic32mx/lib\libpic32.a(default-general-exception-handler.o)
 .comment       0x00000000       0x3d c:/program files (x86)/microchip/xc32/v1.44/bin/bin/../../lib/gcc/pic32mx/4.8.3/../../../../pic32mx/lib\libpic32.a(defaultinterrupt.o)
 .comment       0x00000000       0x3d c:/program files (x86)/microchip/xc32/v1.44/bin/bin/../../lib/gcc/pic32mx/4.8.3/../../../../pic32mx/lib\libc.a(printf_cdnopuxX.eo)
 .comment       0x00000000       0x3d c:/program files (x86)/microchip/xc32/v1.44/bin/bin/../../lib/gcc/pic32mx/4.8.3/../../../../pic32mx/lib\libc.a(_iob.o)
 .comment       0x00000000       0x3d c:/program files (x86)/microchip/xc32/v1.44/bin/bin/../../lib/gcc/pic32mx/4.8.3/../../../../pic32mx/lib\libc.a(doprnt_cdnopuxX.eo)
 .comment       0x00000000       0x3d c:/program files (x86)/microchip/xc32/v1.44/bin/bin/../../lib/gcc/pic32mx/4.8.3/../../../../pic32mx/lib\libc.a(_fputc_simple.o)
 .comment       0x00000085       0x4e c:/program files (x86)/microchip/xc32/v1.44/bin/bin/../../lib/gcc/pic32mx/4.8.3/../../../../pic32mx/lib\libc.a(ctype.o)
                                 0x8b (size before relaxing)
 .comment       0x00000000       0x3d c:/program files (x86)/microchip/xc32/v1.44/bin/bin/../../lib/gcc/pic32mx/4.8.3/../../../../pic32mx/lib\libc.a(_flsbuf_simple.o)
 .comment       0x00000000       0x3d c:/program files (x86)/microchip/xc32/v1.44/bin/bin/../../lib/gcc/pic32mx/4.8.3\libgcc.a(_udivdi3.o)
 .comment       0x00000000       0x3d c:/program files (x86)/microchip/xc32/v1.44/bin/bin/../../lib/gcc/pic32mx/4.8.3\libgcc.a(_umoddi3.o)
 .comment       0x00000000       0x3d c:/program files (x86)/microchip/xc32/v1.44/bin/bin/../../lib/gcc/pic32mx/4.8.3/../../../../pic32mx/lib\libpic32.a(write.o)
 .comment       0x00000000       0x3d c:/program files (x86)/microchip/xc32/v1.44/bin/bin/../../lib/gcc/pic32mx/4.8.3/../../../../pic32mx/lib\libpic32.a(_mon_putc.o)
 .comment       0x00000000       0x3d c:/program files (x86)/microchip/xc32/v1.44/bin/bin/../../lib/gcc/pic32mx/4.8.3/../../../../pic32mx/lib\libpic32.a(xc32_uart.o)

.debug
 *(.debug)

.line
 *(.line)

.debug_srcinfo
 *(.debug_srcinfo)

.debug_sfnames
 *(.debug_sfnames)

.debug_aranges  0x00000000      0x698
 *(.debug_aranges)
 .debug_aranges
                0x00000000       0x20 build/default/production/_ext/449926602/ble_api.o
 .debug_aranges
                0x00000020       0x20 build/default/production/_ext/449926602/ble_manager.o
 .debug_aranges
                0x00000040       0x20 build/default/production/_ext/449926602/bm_application_mode.o
 .debug_aranges
                0x00000060       0x20 build/default/production/_ext/449926602/bm_program_mode.o
 .debug_aranges
                0x00000080       0x20 build/default/production/_ext/449926602/bm_utils.o
 .debug_aranges
                0x000000a0       0x20 build/default/production/_ext/449926602/dfu_api.o
 .debug_aranges
                0x000000c0       0x20 build/default/production/_ext/449926602/dfu_manager.o
 .debug_aranges
                0x000000e0       0x20 build/default/production/_ext/449926602/event_mem.o
 .debug_aranges
                0x00000100       0x20 build/default/production/_ext/449926602/fifo.o
 .debug_aranges
                0x00000120       0x20 build/default/production/_ext/449926602/interface.o
 .debug_aranges
                0x00000140       0x20 build/default/production/_ext/449926602/memory.o
 .debug_aranges
                0x00000160       0x20 build/default/production/_ext/449926602/platform_pic.o
 .debug_aranges
                0x00000180       0x20 build/default/production/_ext/1819808422/clear_core_sw0_leg_lib.o
 .debug_aranges
                0x000001a0       0x20 build/default/production/_ext/1819808422/clear_core_sw0_lib.o
 .debug_aranges
                0x000001c0       0x20 build/default/production/_ext/1819808422/clear_core_sw1_leg_lib.o
 .debug_aranges
                0x000001e0       0x20 build/default/production/_ext/1819808422/clear_core_sw1_lib.o
 .debug_aranges
                0x00000200       0x20 build/default/production/_ext/1819808422/int_configure_system_lib.o
 .debug_aranges
                0x00000220       0x20 build/default/production/_ext/1819808422/int_disable_interrupts_lib.o
 .debug_aranges
                0x00000240       0x20 build/default/production/_ext/1819808422/int_enable_interrupts_lib.o
 .debug_aranges
                0x00000260       0x20 build/default/production/_ext/1819808422/int_enable_mv_int_lib.o
 .debug_aranges
                0x00000280       0x20 build/default/production/_ext/1819808422/int_enable_sv_int_lib.o
 .debug_aranges
                0x000002a0       0x20 build/default/production/_ext/1819808422/int_get_pending_int_lib.o
 .debug_aranges
                0x000002c0       0x20 build/default/production/_ext/1819808422/int_restore_interrupts_lib.o
 .debug_aranges
                0x000002e0       0x20 build/default/production/_ext/1819808422/int_set_ebase_lib.o
 .debug_aranges
                0x00000300       0x20 build/default/production/_ext/1819808422/int_set_ebase_vs_lib.o
 .debug_aranges
                0x00000320       0x20 build/default/production/_ext/1819808422/int_set_vector_spacing_lib.o
 .debug_aranges
                0x00000340       0x18 build/default/production/_ext/1819808422/int_tbl_5xx_6xx_7xx_lib.o
 .debug_aranges
                0x00000358       0x20 build/default/production/_ext/1819808422/int_tbl_legacy_lib.o
 .debug_aranges
                0x00000378       0x20 build/default/production/_ext/1819808422/int_tbl_lib.o
 .debug_aranges
                0x00000398       0x20 build/default/production/_ext/1819808422/int_tbl_lib_obs.o
 .debug_aranges
                0x000003b8       0x20 build/default/production/_ext/1819808422/set_core_sw0_leg_lib.o
 .debug_aranges
                0x000003d8       0x20 build/default/production/_ext/1819808422/set_core_sw0_lib.o
 .debug_aranges
                0x000003f8       0x20 build/default/production/_ext/1819808422/set_core_sw1_leg_lib.o
 .debug_aranges
                0x00000418       0x20 build/default/production/_ext/1819808422/set_core_sw1_lib.o
 .debug_aranges
                0x00000438       0x20 build/default/production/_ext/1986190483/pcache.o
 .debug_aranges
                0x00000458       0x20 build/default/production/_ext/2046243727/uart_lib.o
 .debug_aranges
                0x00000478       0x20 build/default/production/_ext/8382566/time.o
 .debug_aranges
                0x00000498       0x20 build/default/production/_ext/8382566/uart_app.o
 .debug_aranges
                0x000004b8       0x20 build/default/production/_ext/8382566/uart_drv.o
 .debug_aranges
                0x000004d8       0x20 build/default/production/_ext/1472/main.o
 .debug_aranges
                0x000004f8       0x20 c:/program files (x86)/microchip/xc32/v1.44/bin/bin/../../lib/gcc/pic32mx/4.8.3/../../../../pic32mx/lib\libpic32.a(default-bootstrap-exception-handler.o)
 .debug_aranges
                0x00000518       0x20 c:/program files (x86)/microchip/xc32/v1.44/bin/bin/../../lib/gcc/pic32mx/4.8.3/../../../../pic32mx/lib\libpic32.a(default-on-reset.o)
 .debug_aranges
                0x00000538       0x20 c:/program files (x86)/microchip/xc32/v1.44/bin/bin/../../lib/gcc/pic32mx/4.8.3/../../../../pic32mx/lib\libpic32.a(default-on-bootstrap.o)
 .debug_aranges
                0x00000558       0x20 c:/program files (x86)/microchip/xc32/v1.44/bin/bin/../../lib/gcc/pic32mx/4.8.3/../../../../pic32mx/lib\libpic32.a(default-general-exception-handler.o)
 .debug_aranges
                0x00000578       0x20 c:/program files (x86)/microchip/xc32/v1.44/bin/bin/../../lib/gcc/pic32mx/4.8.3/../../../../pic32mx/lib\libpic32.a(defaultinterrupt.o)
 .debug_aranges
                0x00000598       0x20 c:/program files (x86)/microchip/xc32/v1.44/bin/bin/../../lib/gcc/pic32mx/4.8.3/../../../../pic32mx/lib\libc.a(printf_cdnopuxX.eo)
 .debug_aranges
                0x000005b8       0x20 c:/program files (x86)/microchip/xc32/v1.44/bin/bin/../../lib/gcc/pic32mx/4.8.3/../../../../pic32mx/lib\libc.a(doprnt_cdnopuxX.eo)
 .debug_aranges
                0x000005d8       0x20 c:/program files (x86)/microchip/xc32/v1.44/bin/bin/../../lib/gcc/pic32mx/4.8.3/../../../../pic32mx/lib\libc.a(_fputc_simple.o)
 .debug_aranges
                0x000005f8       0x20 c:/program files (x86)/microchip/xc32/v1.44/bin/bin/../../lib/gcc/pic32mx/4.8.3/../../../../pic32mx/lib\libc.a(_flsbuf_simple.o)
 .debug_aranges
                0x00000618       0x20 c:/program files (x86)/microchip/xc32/v1.44/bin/bin/../../lib/gcc/pic32mx/4.8.3\libgcc.a(_udivdi3.o)
 .debug_aranges
                0x00000638       0x20 c:/program files (x86)/microchip/xc32/v1.44/bin/bin/../../lib/gcc/pic32mx/4.8.3\libgcc.a(_umoddi3.o)
 .debug_aranges
                0x00000658       0x20 c:/program files (x86)/microchip/xc32/v1.44/bin/bin/../../lib/gcc/pic32mx/4.8.3/../../../../pic32mx/lib\libpic32.a(write.o)
 .debug_aranges
                0x00000678       0x20 c:/program files (x86)/microchip/xc32/v1.44/bin/bin/../../lib/gcc/pic32mx/4.8.3/../../../../pic32mx/lib\libpic32.a(_mon_putc.o)

.debug_pubnames
 *(.debug_pubnames)

.debug_info     0x00000000    0x2a3ef
 *(.debug_info .gnu.linkonce.wi.*)
 .debug_info    0x00000000     0x5e09 build/default/production/_ext/449926602/ble_api.o
 .debug_info    0x00005e09     0x4d22 build/default/production/_ext/449926602/ble_manager.o
 .debug_info    0x0000ab2b     0x4abe build/default/production/_ext/449926602/bm_application_mode.o
 .debug_info    0x0000f5e9     0x1bcd build/default/production/_ext/449926602/bm_program_mode.o
 .debug_info    0x000111b6      0x9d5 build/default/production/_ext/449926602/bm_utils.o
 .debug_info    0x00011b8b     0x1ba8 build/default/production/_ext/449926602/dfu_api.o
 .debug_info    0x00013733     0x1ec1 build/default/production/_ext/449926602/dfu_manager.o
 .debug_info    0x000155f4      0x4b1 build/default/production/_ext/449926602/event_mem.o
 .debug_info    0x00015aa5      0x343 build/default/production/_ext/449926602/fifo.o
 .debug_info    0x00015de8     0x3187 build/default/production/_ext/449926602/interface.o
 .debug_info    0x00018f6f      0x310 build/default/production/_ext/449926602/memory.o
 .debug_info    0x0001927f     0x1dd8 build/default/production/_ext/449926602/platform_pic.o
 .debug_info    0x0001b057      0x1fb build/default/production/_ext/1819808422/clear_core_sw0_leg_lib.o
 .debug_info    0x0001b252      0x206 build/default/production/_ext/1819808422/clear_core_sw0_lib.o
 .debug_info    0x0001b458      0x1fb build/default/production/_ext/1819808422/clear_core_sw1_leg_lib.o
 .debug_info    0x0001b653      0x206 build/default/production/_ext/1819808422/clear_core_sw1_lib.o
 .debug_info    0x0001b859      0x279 build/default/production/_ext/1819808422/int_configure_system_lib.o
 .debug_info    0x0001bad2      0x20e build/default/production/_ext/1819808422/int_disable_interrupts_lib.o
 .debug_info    0x0001bce0      0x20c build/default/production/_ext/1819808422/int_enable_interrupts_lib.o
 .debug_info    0x0001beec      0x20d build/default/production/_ext/1819808422/int_enable_mv_int_lib.o
 .debug_info    0x0001c0f9      0x20e build/default/production/_ext/1819808422/int_enable_sv_int_lib.o
 .debug_info    0x0001c307      0x76d build/default/production/_ext/1819808422/int_get_pending_int_lib.o
 .debug_info    0x0001ca74      0x20a build/default/production/_ext/1819808422/int_restore_interrupts_lib.o
 .debug_info    0x0001cc7e      0x21f build/default/production/_ext/1819808422/int_set_ebase_lib.o
 .debug_info    0x0001ce9d      0x24b build/default/production/_ext/1819808422/int_set_ebase_vs_lib.o
 .debug_info    0x0001d0e8      0x231 build/default/production/_ext/1819808422/int_set_vector_spacing_lib.o
 .debug_info    0x0001d319      0x412 build/default/production/_ext/1819808422/int_tbl_5xx_6xx_7xx_lib.o
 .debug_info    0x0001d72b      0xb90 build/default/production/_ext/1819808422/int_tbl_legacy_lib.o
 .debug_info    0x0001e2bb     0x12e1 build/default/production/_ext/1819808422/int_tbl_lib.o
 .debug_info    0x0001f59c      0xb75 build/default/production/_ext/1819808422/int_tbl_lib_obs.o
 .debug_info    0x00020111      0x1f7 build/default/production/_ext/1819808422/set_core_sw0_leg_lib.o
 .debug_info    0x00020308      0x202 build/default/production/_ext/1819808422/set_core_sw0_lib.o
 .debug_info    0x0002050a      0x1f7 build/default/production/_ext/1819808422/set_core_sw1_leg_lib.o
 .debug_info    0x00020701      0x202 build/default/production/_ext/1819808422/set_core_sw1_lib.o
 .debug_info    0x00020903      0x163 build/default/production/_ext/1986190483/pcache.o
 .debug_info    0x00020a66      0xaa9 build/default/production/_ext/2046243727/uart_lib.o
 .debug_info    0x0002150f     0x1f89 build/default/production/_ext/8382566/time.o
 .debug_info    0x00023498     0x11f4 build/default/production/_ext/8382566/uart_app.o
 .debug_info    0x0002468c     0x2f3e build/default/production/_ext/8382566/uart_drv.o
 .debug_info    0x000275ca     0x15e2 build/default/production/_ext/1472/main.o
 .debug_info    0x00028bac       0xf5 c:/program files (x86)/microchip/xc32/v1.44/bin/bin/../../lib/gcc/pic32mx/4.8.3/../../../../pic32mx/lib\libpic32.a(default-bootstrap-exception-handler.o)
 .debug_info    0x00028ca1       0xce c:/program files (x86)/microchip/xc32/v1.44/bin/bin/../../lib/gcc/pic32mx/4.8.3/../../../../pic32mx/lib\libpic32.a(default-on-reset.o)
 .debug_info    0x00028d6f       0xd6 c:/program files (x86)/microchip/xc32/v1.44/bin/bin/../../lib/gcc/pic32mx/4.8.3/../../../../pic32mx/lib\libpic32.a(default-on-bootstrap.o)
 .debug_info    0x00028e45       0xf1 c:/program files (x86)/microchip/xc32/v1.44/bin/bin/../../lib/gcc/pic32mx/4.8.3/../../../../pic32mx/lib\libpic32.a(default-general-exception-handler.o)
 .debug_info    0x00028f36       0xe8 c:/program files (x86)/microchip/xc32/v1.44/bin/bin/../../lib/gcc/pic32mx/4.8.3/../../../../pic32mx/lib\libpic32.a(defaultinterrupt.o)
 .debug_info    0x0002901e       0xd0 c:/program files (x86)/microchip/xc32/v1.44/bin/bin/../../lib/gcc/pic32mx/4.8.3/../../../../pic32mx/lib\libc.a(printf_cdnopuxX.eo)
 .debug_info    0x000290ee       0xd3 c:/program files (x86)/microchip/xc32/v1.44/bin/bin/../../lib/gcc/pic32mx/4.8.3/../../../../pic32mx/lib\libc.a(doprnt_cdnopuxX.eo)
 .debug_info    0x000291c1       0xc4 c:/program files (x86)/microchip/xc32/v1.44/bin/bin/../../lib/gcc/pic32mx/4.8.3/../../../../pic32mx/lib\libc.a(_fputc_simple.o)
 .debug_info    0x00029285       0xc7 c:/program files (x86)/microchip/xc32/v1.44/bin/bin/../../lib/gcc/pic32mx/4.8.3/../../../../pic32mx/lib\libc.a(_flsbuf_simple.o)
 .debug_info    0x0002934c      0x76f c:/program files (x86)/microchip/xc32/v1.44/bin/bin/../../lib/gcc/pic32mx/4.8.3\libgcc.a(_udivdi3.o)
 .debug_info    0x00029abb      0x7ac c:/program files (x86)/microchip/xc32/v1.44/bin/bin/../../lib/gcc/pic32mx/4.8.3\libgcc.a(_umoddi3.o)
 .debug_info    0x0002a267       0xc0 c:/program files (x86)/microchip/xc32/v1.44/bin/bin/../../lib/gcc/pic32mx/4.8.3/../../../../pic32mx/lib\libpic32.a(write.o)
 .debug_info    0x0002a327       0xc8 c:/program files (x86)/microchip/xc32/v1.44/bin/bin/../../lib/gcc/pic32mx/4.8.3/../../../../pic32mx/lib\libpic32.a(_mon_putc.o)

.debug_abbrev   0x00000000     0x3965
 *(.debug_abbrev)
 .debug_abbrev  0x00000000      0x2df build/default/production/_ext/449926602/ble_api.o
 .debug_abbrev  0x000002df      0x344 build/default/production/_ext/449926602/ble_manager.o
 .debug_abbrev  0x00000623      0x2e5 build/default/production/_ext/449926602/bm_application_mode.o
 .debug_abbrev  0x00000908      0x1fd build/default/production/_ext/449926602/bm_program_mode.o
 .debug_abbrev  0x00000b05      0x147 build/default/production/_ext/449926602/bm_utils.o
 .debug_abbrev  0x00000c4c      0x254 build/default/production/_ext/449926602/dfu_api.o
 .debug_abbrev  0x00000ea0      0x22c build/default/production/_ext/449926602/dfu_manager.o
 .debug_abbrev  0x000010cc       0xe6 build/default/production/_ext/449926602/event_mem.o
 .debug_abbrev  0x000011b2       0xa8 build/default/production/_ext/449926602/fifo.o
 .debug_abbrev  0x0000125a      0x321 build/default/production/_ext/449926602/interface.o
 .debug_abbrev  0x0000157b       0xb7 build/default/production/_ext/449926602/memory.o
 .debug_abbrev  0x00001632      0x26c build/default/production/_ext/449926602/platform_pic.o
 .debug_abbrev  0x0000189e       0xa3 build/default/production/_ext/1819808422/clear_core_sw0_leg_lib.o
 .debug_abbrev  0x00001941       0xa3 build/default/production/_ext/1819808422/clear_core_sw0_lib.o
 .debug_abbrev  0x000019e4       0xa3 build/default/production/_ext/1819808422/clear_core_sw1_leg_lib.o
 .debug_abbrev  0x00001a87       0xa3 build/default/production/_ext/1819808422/clear_core_sw1_lib.o
 .debug_abbrev  0x00001b2a       0xc8 build/default/production/_ext/1819808422/int_configure_system_lib.o
 .debug_abbrev  0x00001bf2       0xa5 build/default/production/_ext/1819808422/int_disable_interrupts_lib.o
 .debug_abbrev  0x00001c97       0xa5 build/default/production/_ext/1819808422/int_enable_interrupts_lib.o
 .debug_abbrev  0x00001d3c       0xa3 build/default/production/_ext/1819808422/int_enable_mv_int_lib.o
 .debug_abbrev  0x00001ddf       0xa3 build/default/production/_ext/1819808422/int_enable_sv_int_lib.o
 .debug_abbrev  0x00001e82       0xbb build/default/production/_ext/1819808422/int_get_pending_int_lib.o
 .debug_abbrev  0x00001f3d       0xa3 build/default/production/_ext/1819808422/int_restore_interrupts_lib.o
 .debug_abbrev  0x00001fe0       0xb2 build/default/production/_ext/1819808422/int_set_ebase_lib.o
 .debug_abbrev  0x00002092       0xb2 build/default/production/_ext/1819808422/int_set_ebase_vs_lib.o
 .debug_abbrev  0x00002144       0xb2 build/default/production/_ext/1819808422/int_set_vector_spacing_lib.o
 .debug_abbrev  0x000021f6       0xf2 build/default/production/_ext/1819808422/int_tbl_5xx_6xx_7xx_lib.o
 .debug_abbrev  0x000022e8      0x140 build/default/production/_ext/1819808422/int_tbl_legacy_lib.o
 .debug_abbrev  0x00002428      0x17c build/default/production/_ext/1819808422/int_tbl_lib.o
 .debug_abbrev  0x000025a4      0x1a3 build/default/production/_ext/1819808422/int_tbl_lib_obs.o
 .debug_abbrev  0x00002747       0xa3 build/default/production/_ext/1819808422/set_core_sw0_leg_lib.o
 .debug_abbrev  0x000027ea       0xa3 build/default/production/_ext/1819808422/set_core_sw0_lib.o
 .debug_abbrev  0x0000288d       0xa3 build/default/production/_ext/1819808422/set_core_sw1_leg_lib.o
 .debug_abbrev  0x00002930       0xa3 build/default/production/_ext/1819808422/set_core_sw1_lib.o
 .debug_abbrev  0x000029d3       0x5c build/default/production/_ext/1986190483/pcache.o
 .debug_abbrev  0x00002a2f      0x1dd build/default/production/_ext/2046243727/uart_lib.o
 .debug_abbrev  0x00002c0c      0x24a build/default/production/_ext/8382566/time.o
 .debug_abbrev  0x00002e56      0x1c3 build/default/production/_ext/8382566/uart_app.o
 .debug_abbrev  0x00003019      0x241 build/default/production/_ext/8382566/uart_drv.o
 .debug_abbrev  0x0000325a      0x2d4 build/default/production/_ext/1472/main.o
 .debug_abbrev  0x0000352e       0x28 c:/program files (x86)/microchip/xc32/v1.44/bin/bin/../../lib/gcc/pic32mx/4.8.3/../../../../pic32mx/lib\libpic32.a(default-bootstrap-exception-handler.o)
 .debug_abbrev  0x00003556       0x28 c:/program files (x86)/microchip/xc32/v1.44/bin/bin/../../lib/gcc/pic32mx/4.8.3/../../../../pic32mx/lib\libpic32.a(default-on-reset.o)
 .debug_abbrev  0x0000357e       0x28 c:/program files (x86)/microchip/xc32/v1.44/bin/bin/../../lib/gcc/pic32mx/4.8.3/../../../../pic32mx/lib\libpic32.a(default-on-bootstrap.o)
 .debug_abbrev  0x000035a6       0x28 c:/program files (x86)/microchip/xc32/v1.44/bin/bin/../../lib/gcc/pic32mx/4.8.3/../../../../pic32mx/lib\libpic32.a(default-general-exception-handler.o)
 .debug_abbrev  0x000035ce       0x28 c:/program files (x86)/microchip/xc32/v1.44/bin/bin/../../lib/gcc/pic32mx/4.8.3/../../../../pic32mx/lib\libpic32.a(defaultinterrupt.o)
 .debug_abbrev  0x000035f6       0x28 c:/program files (x86)/microchip/xc32/v1.44/bin/bin/../../lib/gcc/pic32mx/4.8.3/../../../../pic32mx/lib\libc.a(printf_cdnopuxX.eo)
 .debug_abbrev  0x0000361e       0x28 c:/program files (x86)/microchip/xc32/v1.44/bin/bin/../../lib/gcc/pic32mx/4.8.3/../../../../pic32mx/lib\libc.a(doprnt_cdnopuxX.eo)
 .debug_abbrev  0x00003646       0x28 c:/program files (x86)/microchip/xc32/v1.44/bin/bin/../../lib/gcc/pic32mx/4.8.3/../../../../pic32mx/lib\libc.a(_fputc_simple.o)
 .debug_abbrev  0x0000366e       0x28 c:/program files (x86)/microchip/xc32/v1.44/bin/bin/../../lib/gcc/pic32mx/4.8.3/../../../../pic32mx/lib\libc.a(_flsbuf_simple.o)
 .debug_abbrev  0x00003696      0x138 c:/program files (x86)/microchip/xc32/v1.44/bin/bin/../../lib/gcc/pic32mx/4.8.3\libgcc.a(_udivdi3.o)
 .debug_abbrev  0x000037ce      0x147 c:/program files (x86)/microchip/xc32/v1.44/bin/bin/../../lib/gcc/pic32mx/4.8.3\libgcc.a(_umoddi3.o)
 .debug_abbrev  0x00003915       0x28 c:/program files (x86)/microchip/xc32/v1.44/bin/bin/../../lib/gcc/pic32mx/4.8.3/../../../../pic32mx/lib\libpic32.a(write.o)
 .debug_abbrev  0x0000393d       0x28 c:/program files (x86)/microchip/xc32/v1.44/bin/bin/../../lib/gcc/pic32mx/4.8.3/../../../../pic32mx/lib\libpic32.a(_mon_putc.o)

.debug_line     0x00000000     0x513e
 *(.debug_line)
 .debug_line    0x00000000      0x724 build/default/production/_ext/449926602/ble_api.o
 .debug_line    0x00000724      0x44d build/default/production/_ext/449926602/ble_manager.o
 .debug_line    0x00000b71      0x5be build/default/production/_ext/449926602/bm_application_mode.o
 .debug_line    0x0000112f      0x316 build/default/production/_ext/449926602/bm_program_mode.o
 .debug_line    0x00001445      0x24b build/default/production/_ext/449926602/bm_utils.o
 .debug_line    0x00001690      0x2b7 build/default/production/_ext/449926602/dfu_api.o
 .debug_line    0x00001947      0x257 build/default/production/_ext/449926602/dfu_manager.o
 .debug_line    0x00001b9e      0x137 build/default/production/_ext/449926602/event_mem.o
 .debug_line    0x00001cd5       0xf5 build/default/production/_ext/449926602/fifo.o
 .debug_line    0x00001dca      0x335 build/default/production/_ext/449926602/interface.o
 .debug_line    0x000020ff       0xfa build/default/production/_ext/449926602/memory.o
 .debug_line    0x000021f9      0x268 build/default/production/_ext/449926602/platform_pic.o
 .debug_line    0x00002461       0xf6 build/default/production/_ext/1819808422/clear_core_sw0_leg_lib.o
 .debug_line    0x00002557       0xf2 build/default/production/_ext/1819808422/clear_core_sw0_lib.o
 .debug_line    0x00002649       0xf6 build/default/production/_ext/1819808422/clear_core_sw1_leg_lib.o
 .debug_line    0x0000273f       0xf2 build/default/production/_ext/1819808422/clear_core_sw1_lib.o
 .debug_line    0x00002831      0x157 build/default/production/_ext/1819808422/int_configure_system_lib.o
 .debug_line    0x00002988       0xfa build/default/production/_ext/1819808422/int_disable_interrupts_lib.o
 .debug_line    0x00002a82       0xf9 build/default/production/_ext/1819808422/int_enable_interrupts_lib.o
 .debug_line    0x00002b7b       0xf7 build/default/production/_ext/1819808422/int_enable_mv_int_lib.o
 .debug_line    0x00002c72       0xf7 build/default/production/_ext/1819808422/int_enable_sv_int_lib.o
 .debug_line    0x00002d69      0x172 build/default/production/_ext/1819808422/int_get_pending_int_lib.o
 .debug_line    0x00002edb       0xfa build/default/production/_ext/1819808422/int_restore_interrupts_lib.o
 .debug_line    0x00002fd5       0xf8 build/default/production/_ext/1819808422/int_set_ebase_lib.o
 .debug_line    0x000030cd       0xfc build/default/production/_ext/1819808422/int_set_ebase_vs_lib.o
 .debug_line    0x000031c9      0x101 build/default/production/_ext/1819808422/int_set_vector_spacing_lib.o
 .debug_line    0x000032ca       0xe4 build/default/production/_ext/1819808422/int_tbl_5xx_6xx_7xx_lib.o
 .debug_line    0x000033ae      0x1ba build/default/production/_ext/1819808422/int_tbl_legacy_lib.o
 .debug_line    0x00003568      0x1c1 build/default/production/_ext/1819808422/int_tbl_lib.o
 .debug_line    0x00003729      0x19f build/default/production/_ext/1819808422/int_tbl_lib_obs.o
 .debug_line    0x000038c8       0xf4 build/default/production/_ext/1819808422/set_core_sw0_leg_lib.o
 .debug_line    0x000039bc       0xf0 build/default/production/_ext/1819808422/set_core_sw0_lib.o
 .debug_line    0x00003aac       0xf4 build/default/production/_ext/1819808422/set_core_sw1_leg_lib.o
 .debug_line    0x00003ba0       0xf0 build/default/production/_ext/1819808422/set_core_sw1_lib.o
 .debug_line    0x00003c90       0x9d build/default/production/_ext/1986190483/pcache.o
 .debug_line    0x00003d2d      0x206 build/default/production/_ext/2046243727/uart_lib.o
 .debug_line    0x00003f33      0x248 build/default/production/_ext/8382566/time.o
 .debug_line    0x0000417b      0x1f9 build/default/production/_ext/8382566/uart_app.o
 .debug_line    0x00004374      0x292 build/default/production/_ext/8382566/uart_drv.o
 .debug_line    0x00004606      0x2f9 build/default/production/_ext/1472/main.o
 .debug_line    0x000048ff       0xa7 c:/program files (x86)/microchip/xc32/v1.44/bin/bin/../../lib/gcc/pic32mx/4.8.3/../../../../pic32mx/lib\libpic32.a(default-bootstrap-exception-handler.o)
 .debug_line    0x000049a6       0x94 c:/program files (x86)/microchip/xc32/v1.44/bin/bin/../../lib/gcc/pic32mx/4.8.3/../../../../pic32mx/lib\libpic32.a(default-on-reset.o)
 .debug_line    0x00004a3a       0x98 c:/program files (x86)/microchip/xc32/v1.44/bin/bin/../../lib/gcc/pic32mx/4.8.3/../../../../pic32mx/lib\libpic32.a(default-on-bootstrap.o)
 .debug_line    0x00004ad2       0xa5 c:/program files (x86)/microchip/xc32/v1.44/bin/bin/../../lib/gcc/pic32mx/4.8.3/../../../../pic32mx/lib\libpic32.a(default-general-exception-handler.o)
 .debug_line    0x00004b77       0xa6 c:/program files (x86)/microchip/xc32/v1.44/bin/bin/../../lib/gcc/pic32mx/4.8.3/../../../../pic32mx/lib\libpic32.a(defaultinterrupt.o)
 .debug_line    0x00004c1d       0x80 c:/program files (x86)/microchip/xc32/v1.44/bin/bin/../../lib/gcc/pic32mx/4.8.3/../../../../pic32mx/lib\libc.a(printf_cdnopuxX.eo)
 .debug_line    0x00004c9d        0x0 c:/program files (x86)/microchip/xc32/v1.44/bin/bin/../../lib/gcc/pic32mx/4.8.3/../../../../pic32mx/lib\libc.a(_iob.o)
 .debug_line    0x00004c9d       0x80 c:/program files (x86)/microchip/xc32/v1.44/bin/bin/../../lib/gcc/pic32mx/4.8.3/../../../../pic32mx/lib\libc.a(doprnt_cdnopuxX.eo)
 .debug_line    0x00004d1d       0x7f c:/program files (x86)/microchip/xc32/v1.44/bin/bin/../../lib/gcc/pic32mx/4.8.3/../../../../pic32mx/lib\libc.a(_fputc_simple.o)
 .debug_line    0x00004d9c        0x0 c:/program files (x86)/microchip/xc32/v1.44/bin/bin/../../lib/gcc/pic32mx/4.8.3/../../../../pic32mx/lib\libc.a(ctype.o)
 .debug_line    0x00004d9c       0x80 c:/program files (x86)/microchip/xc32/v1.44/bin/bin/../../lib/gcc/pic32mx/4.8.3/../../../../pic32mx/lib\libc.a(_flsbuf_simple.o)
 .debug_line    0x00004e1c       0xfd c:/program files (x86)/microchip/xc32/v1.44/bin/bin/../../lib/gcc/pic32mx/4.8.3\libgcc.a(_udivdi3.o)
 .debug_line    0x00004f19      0x10f c:/program files (x86)/microchip/xc32/v1.44/bin/bin/../../lib/gcc/pic32mx/4.8.3\libgcc.a(_umoddi3.o)
 .debug_line    0x00005028       0x89 c:/program files (x86)/microchip/xc32/v1.44/bin/bin/../../lib/gcc/pic32mx/4.8.3/../../../../pic32mx/lib\libpic32.a(write.o)
 .debug_line    0x000050b1       0x8d c:/program files (x86)/microchip/xc32/v1.44/bin/bin/../../lib/gcc/pic32mx/4.8.3/../../../../pic32mx/lib\libpic32.a(_mon_putc.o)
 .debug_line    0x0000513e        0x0 c:/program files (x86)/microchip/xc32/v1.44/bin/bin/../../lib/gcc/pic32mx/4.8.3/../../../../pic32mx/lib\libpic32.a(xc32_uart.o)

.debug_frame    0x00000000     0x2f54
 *(.debug_frame)
 .debug_frame   0x00000000      0x734 build/default/production/_ext/449926602/ble_api.o
 .debug_frame   0x00000734      0x3d4 build/default/production/_ext/449926602/ble_manager.o
 .debug_frame   0x00000b08      0x91c build/default/production/_ext/449926602/bm_application_mode.o
 .debug_frame   0x00001424      0x14c build/default/production/_ext/449926602/bm_program_mode.o
 .debug_frame   0x00001570      0x2dc build/default/production/_ext/449926602/bm_utils.o
 .debug_frame   0x0000184c      0x170 build/default/production/_ext/449926602/dfu_api.o
 .debug_frame   0x000019bc       0xd0 build/default/production/_ext/449926602/dfu_manager.o
 .debug_frame   0x00001a8c       0xd4 build/default/production/_ext/449926602/event_mem.o
 .debug_frame   0x00001b60       0xa8 build/default/production/_ext/449926602/fifo.o
 .debug_frame   0x00001c08      0x23c build/default/production/_ext/449926602/interface.o
 .debug_frame   0x00001e44       0x6c build/default/production/_ext/449926602/memory.o
 .debug_frame   0x00001eb0      0x274 build/default/production/_ext/449926602/platform_pic.o
 .debug_frame   0x00002124       0x2c build/default/production/_ext/1819808422/clear_core_sw0_leg_lib.o
 .debug_frame   0x00002150       0x2c build/default/production/_ext/1819808422/clear_core_sw0_lib.o
 .debug_frame   0x0000217c       0x2c build/default/production/_ext/1819808422/clear_core_sw1_leg_lib.o
 .debug_frame   0x000021a8       0x2c build/default/production/_ext/1819808422/clear_core_sw1_lib.o
 .debug_frame   0x000021d4       0x30 build/default/production/_ext/1819808422/int_configure_system_lib.o
 .debug_frame   0x00002204       0x2c build/default/production/_ext/1819808422/int_disable_interrupts_lib.o
 .debug_frame   0x00002230       0x2c build/default/production/_ext/1819808422/int_enable_interrupts_lib.o
 .debug_frame   0x0000225c       0x30 build/default/production/_ext/1819808422/int_enable_mv_int_lib.o
 .debug_frame   0x0000228c       0x30 build/default/production/_ext/1819808422/int_enable_sv_int_lib.o
 .debug_frame   0x000022bc       0x30 build/default/production/_ext/1819808422/int_get_pending_int_lib.o
 .debug_frame   0x000022ec       0x2c build/default/production/_ext/1819808422/int_restore_interrupts_lib.o
 .debug_frame   0x00002318       0x30 build/default/production/_ext/1819808422/int_set_ebase_lib.o
 .debug_frame   0x00002348       0x30 build/default/production/_ext/1819808422/int_set_ebase_vs_lib.o
 .debug_frame   0x00002378       0x30 build/default/production/_ext/1819808422/int_set_vector_spacing_lib.o
 .debug_frame   0x000023a8       0xb0 build/default/production/_ext/1819808422/int_tbl_legacy_lib.o
 .debug_frame   0x00002458      0x130 build/default/production/_ext/1819808422/int_tbl_lib.o
 .debug_frame   0x00002588      0x130 build/default/production/_ext/1819808422/int_tbl_lib_obs.o
 .debug_frame   0x000026b8       0x2c build/default/production/_ext/1819808422/set_core_sw0_leg_lib.o
 .debug_frame   0x000026e4       0x2c build/default/production/_ext/1819808422/set_core_sw0_lib.o
 .debug_frame   0x00002710       0x2c build/default/production/_ext/1819808422/set_core_sw1_leg_lib.o
 .debug_frame   0x0000273c       0x2c build/default/production/_ext/1819808422/set_core_sw1_lib.o
 .debug_frame   0x00002768       0x50 build/default/production/_ext/1986190483/pcache.o
 .debug_frame   0x000027b8      0x110 build/default/production/_ext/2046243727/uart_lib.o
 .debug_frame   0x000028c8      0x180 build/default/production/_ext/8382566/time.o
 .debug_frame   0x00002a48      0x110 build/default/production/_ext/8382566/uart_app.o
 .debug_frame   0x00002b58      0x1c4 build/default/production/_ext/8382566/uart_drv.o
 .debug_frame   0x00002d1c       0x2c build/default/production/_ext/1472/main.o
 .debug_frame   0x00002d48       0x2c c:/program files (x86)/microchip/xc32/v1.44/bin/bin/../../lib/gcc/pic32mx/4.8.3/../../../../pic32mx/lib\libpic32.a(default-bootstrap-exception-handler.o)
 .debug_frame   0x00002d74       0x20 c:/program files (x86)/microchip/xc32/v1.44/bin/bin/../../lib/gcc/pic32mx/4.8.3/../../../../pic32mx/lib\libpic32.a(default-on-reset.o)
 .debug_frame   0x00002d94       0x20 c:/program files (x86)/microchip/xc32/v1.44/bin/bin/../../lib/gcc/pic32mx/4.8.3/../../../../pic32mx/lib\libpic32.a(default-on-bootstrap.o)
 .debug_frame   0x00002db4       0x2c c:/program files (x86)/microchip/xc32/v1.44/bin/bin/../../lib/gcc/pic32mx/4.8.3/../../../../pic32mx/lib\libpic32.a(default-general-exception-handler.o)
 .debug_frame   0x00002de0       0x20 c:/program files (x86)/microchip/xc32/v1.44/bin/bin/../../lib/gcc/pic32mx/4.8.3/../../../../pic32mx/lib\libpic32.a(defaultinterrupt.o)
 .debug_frame   0x00002e00       0x28 c:/program files (x86)/microchip/xc32/v1.44/bin/bin/../../lib/gcc/pic32mx/4.8.3/../../../../pic32mx/lib\libc.a(printf_cdnopuxX.eo)
 .debug_frame   0x00002e28       0x38 c:/program files (x86)/microchip/xc32/v1.44/bin/bin/../../lib/gcc/pic32mx/4.8.3/../../../../pic32mx/lib\libc.a(doprnt_cdnopuxX.eo)
 .debug_frame   0x00002e60       0x2c c:/program files (x86)/microchip/xc32/v1.44/bin/bin/../../lib/gcc/pic32mx/4.8.3/../../../../pic32mx/lib\libc.a(_fputc_simple.o)
 .debug_frame   0x00002e8c       0x28 c:/program files (x86)/microchip/xc32/v1.44/bin/bin/../../lib/gcc/pic32mx/4.8.3/../../../../pic32mx/lib\libc.a(_flsbuf_simple.o)
 .debug_frame   0x00002eb4       0x20 c:/program files (x86)/microchip/xc32/v1.44/bin/bin/../../lib/gcc/pic32mx/4.8.3\libgcc.a(_udivdi3.o)
 .debug_frame   0x00002ed4       0x20 c:/program files (x86)/microchip/xc32/v1.44/bin/bin/../../lib/gcc/pic32mx/4.8.3\libgcc.a(_umoddi3.o)
 .debug_frame   0x00002ef4       0x38 c:/program files (x86)/microchip/xc32/v1.44/bin/bin/../../lib/gcc/pic32mx/4.8.3/../../../../pic32mx/lib\libpic32.a(write.o)
 .debug_frame   0x00002f2c       0x28 c:/program files (x86)/microchip/xc32/v1.44/bin/bin/../../lib/gcc/pic32mx/4.8.3/../../../../pic32mx/lib\libpic32.a(_mon_putc.o)

.debug_str      0x00000000      0x501
 *(.debug_str)
 .debug_str     0x00000000      0x131 build/default/production/_ext/449926602/ble_api.o
 .debug_str     0x00000131       0x9b build/default/production/_ext/449926602/ble_manager.o
 .debug_str     0x000001cc      0x127 build/default/production/_ext/449926602/bm_application_mode.o
 .debug_str     0x000002f3       0x8d build/default/production/_ext/449926602/bm_program_mode.o
 .debug_str     0x00000380        0x0 build/default/production/_ext/449926602/bm_utils.o
 .debug_str     0x00000380       0x41 build/default/production/_ext/449926602/dfu_api.o
 .debug_str     0x000003c1       0x23 build/default/production/_ext/449926602/dfu_manager.o
 .debug_str     0x000003e4        0x0 build/default/production/_ext/449926602/event_mem.o
 .debug_str     0x000003e4        0x0 build/default/production/_ext/449926602/fifo.o
 .debug_str     0x000003e4       0x3c build/default/production/_ext/449926602/interface.o
 .debug_str     0x00000420        0x0 build/default/production/_ext/449926602/memory.o
 .debug_str     0x00000420       0x2b build/default/production/_ext/449926602/platform_pic.o
 .debug_str     0x0000044b        0x0 build/default/production/_ext/1819808422/clear_core_sw0_leg_lib.o
 .debug_str     0x0000044b        0x0 build/default/production/_ext/1819808422/clear_core_sw0_lib.o
 .debug_str     0x0000044b        0x0 build/default/production/_ext/1819808422/clear_core_sw1_leg_lib.o
 .debug_str     0x0000044b        0x0 build/default/production/_ext/1819808422/clear_core_sw1_lib.o
 .debug_str     0x0000044b        0x0 build/default/production/_ext/1819808422/int_configure_system_lib.o
 .debug_str     0x0000044b        0x0 build/default/production/_ext/1819808422/int_disable_interrupts_lib.o
 .debug_str     0x0000044b        0x0 build/default/production/_ext/1819808422/int_enable_interrupts_lib.o
 .debug_str     0x0000044b        0x0 build/default/production/_ext/1819808422/int_enable_mv_int_lib.o
 .debug_str     0x0000044b        0x0 build/default/production/_ext/1819808422/int_enable_sv_int_lib.o
 .debug_str     0x0000044b        0x0 build/default/production/_ext/1819808422/int_get_pending_int_lib.o
 .debug_str     0x0000044b        0x0 build/default/production/_ext/1819808422/int_restore_interrupts_lib.o
 .debug_str     0x0000044b        0x0 build/default/production/_ext/1819808422/int_set_ebase_lib.o
 .debug_str     0x0000044b        0x0 build/default/production/_ext/1819808422/int_set_ebase_vs_lib.o
 .debug_str     0x0000044b        0x0 build/default/production/_ext/1819808422/int_set_vector_spacing_lib.o
 .debug_str     0x0000044b        0x0 build/default/production/_ext/1819808422/int_tbl_5xx_6xx_7xx_lib.o
 .debug_str     0x0000044b       0x1c build/default/production/_ext/1819808422/int_tbl_legacy_lib.o
 .debug_str     0x00000467        0x7 build/default/production/_ext/1819808422/int_tbl_lib.o
 .debug_str     0x0000046e        0x7 build/default/production/_ext/1819808422/int_tbl_lib_obs.o
 .debug_str     0x00000475        0x0 build/default/production/_ext/1819808422/set_core_sw0_leg_lib.o
 .debug_str     0x00000475        0x0 build/default/production/_ext/1819808422/set_core_sw0_lib.o
 .debug_str     0x00000475        0x0 build/default/production/_ext/1819808422/set_core_sw1_leg_lib.o
 .debug_str     0x00000475        0x0 build/default/production/_ext/1819808422/set_core_sw1_lib.o
 .debug_str     0x00000475        0x0 build/default/production/_ext/1986190483/pcache.o
 .debug_str     0x00000475       0x1a build/default/production/_ext/2046243727/uart_lib.o
 .debug_str     0x0000048f        0x9 build/default/production/_ext/8382566/time.o
 .debug_str     0x00000498       0x1c build/default/production/_ext/8382566/uart_app.o
 .debug_str     0x000004b4       0x19 build/default/production/_ext/8382566/uart_drv.o
 .debug_str     0x000004cd       0x34 build/default/production/_ext/1472/main.o
 .debug_str     0x00000501        0x0 c:/program files (x86)/microchip/xc32/v1.44/bin/bin/../../lib/gcc/pic32mx/4.8.3/../../../../pic32mx/lib\libpic32.a(default-bootstrap-exception-handler.o)
 .debug_str     0x00000501        0x0 c:/program files (x86)/microchip/xc32/v1.44/bin/bin/../../lib/gcc/pic32mx/4.8.3/../../../../pic32mx/lib\libpic32.a(default-on-reset.o)
 .debug_str     0x00000501        0x0 c:/program files (x86)/microchip/xc32/v1.44/bin/bin/../../lib/gcc/pic32mx/4.8.3/../../../../pic32mx/lib\libpic32.a(default-on-bootstrap.o)
 .debug_str     0x00000501        0x0 c:/program files (x86)/microchip/xc32/v1.44/bin/bin/../../lib/gcc/pic32mx/4.8.3/../../../../pic32mx/lib\libpic32.a(default-general-exception-handler.o)
 .debug_str     0x00000501        0x0 c:/program files (x86)/microchip/xc32/v1.44/bin/bin/../../lib/gcc/pic32mx/4.8.3/../../../../pic32mx/lib\libpic32.a(defaultinterrupt.o)
 .debug_str     0x00000501        0x0 c:/program files (x86)/microchip/xc32/v1.44/bin/bin/../../lib/gcc/pic32mx/4.8.3/../../../../pic32mx/lib\libc.a(printf_cdnopuxX.eo)
 .debug_str     0x00000501        0x0 c:/program files (x86)/microchip/xc32/v1.44/bin/bin/../../lib/gcc/pic32mx/4.8.3/../../../../pic32mx/lib\libc.a(_iob.o)
 .debug_str     0x00000501        0x0 c:/program files (x86)/microchip/xc32/v1.44/bin/bin/../../lib/gcc/pic32mx/4.8.3/../../../../pic32mx/lib\libc.a(doprnt_cdnopuxX.eo)
 .debug_str     0x00000501        0x0 c:/program files (x86)/microchip/xc32/v1.44/bin/bin/../../lib/gcc/pic32mx/4.8.3/../../../../pic32mx/lib\libc.a(_fputc_simple.o)
 .debug_str     0x00000501        0x0 c:/program files (x86)/microchip/xc32/v1.44/bin/bin/../../lib/gcc/pic32mx/4.8.3/../../../../pic32mx/lib\libc.a(ctype.o)
 .debug_str     0x00000501        0x0 c:/program files (x86)/microchip/xc32/v1.44/bin/bin/../../lib/gcc/pic32mx/4.8.3/../../../../pic32mx/lib\libc.a(_flsbuf_simple.o)
 .debug_str     0x00000501        0x0 c:/program files (x86)/microchip/xc32/v1.44/bin/bin/../../lib/gcc/pic32mx/4.8.3\libgcc.a(_udivdi3.o)
 .debug_str     0x00000501        0x0 c:/program files (x86)/microchip/xc32/v1.44/bin/bin/../../lib/gcc/pic32mx/4.8.3\libgcc.a(_umoddi3.o)
 .debug_str     0x00000501        0x0 c:/program files (x86)/microchip/xc32/v1.44/bin/bin/../../lib/gcc/pic32mx/4.8.3/../../../../pic32mx/lib\libpic32.a(write.o)
 .debug_str     0x00000501        0x0 c:/program files (x86)/microchip/xc32/v1.44/bin/bin/../../lib/gcc/pic32mx/4.8.3/../../../../pic32mx/lib\libpic32.a(_mon_putc.o)
 .debug_str     0x00000501        0x0 c:/program files (x86)/microchip/xc32/v1.44/bin/bin/../../lib/gcc/pic32mx/4.8.3/../../../../pic32mx/lib\libpic32.a(xc32_uart.o)

.debug_loc      0x00000000     0x1557
 *(.debug_loc)
 .debug_loc     0x00000000       0x2c c:/program files (x86)/microchip/xc32/v1.44/bin/bin/../../lib/gcc/pic32mx/4.8.3/../../../../pic32mx/lib\libpic32.a(default-bootstrap-exception-handler.o)
 .debug_loc     0x0000002c       0x2c c:/program files (x86)/microchip/xc32/v1.44/bin/bin/../../lib/gcc/pic32mx/4.8.3/../../../../pic32mx/lib\libpic32.a(default-general-exception-handler.o)
 .debug_loc     0x00000058      0xa6a c:/program files (x86)/microchip/xc32/v1.44/bin/bin/../../lib/gcc/pic32mx/4.8.3\libgcc.a(_udivdi3.o)
 .debug_loc     0x00000ac2      0xa3d c:/program files (x86)/microchip/xc32/v1.44/bin/bin/../../lib/gcc/pic32mx/4.8.3\libgcc.a(_umoddi3.o)
 .debug_loc     0x000014ff       0x38 c:/program files (x86)/microchip/xc32/v1.44/bin/bin/../../lib/gcc/pic32mx/4.8.3/../../../../pic32mx/lib\libpic32.a(write.o)
 .debug_loc     0x00001537       0x20 c:/program files (x86)/microchip/xc32/v1.44/bin/bin/../../lib/gcc/pic32mx/4.8.3/../../../../pic32mx/lib\libpic32.a(_mon_putc.o)

.debug_macinfo
 *(.debug_macinfo)

.debug_weaknames
 *(.debug_weaknames)

.debug_funcnames
 *(.debug_funcnames)

.debug_typenames
 *(.debug_typenames)

.debug_varnames
 *(.debug_varnames)

.debug_pubtypes
 *(.debug_pubtypes)

.debug_ranges   0x00000000      0x220
 *(.debug_ranges)
 .debug_ranges  0x00000000       0x10 c:/program files (x86)/microchip/xc32/v1.44/bin/bin/../../lib/gcc/pic32mx/4.8.3/../../../../pic32mx/lib\libpic32.a(default-bootstrap-exception-handler.o)
 .debug_ranges  0x00000010       0x10 c:/program files (x86)/microchip/xc32/v1.44/bin/bin/../../lib/gcc/pic32mx/4.8.3/../../../../pic32mx/lib\libpic32.a(default-on-reset.o)
 .debug_ranges  0x00000020       0x10 c:/program files (x86)/microchip/xc32/v1.44/bin/bin/../../lib/gcc/pic32mx/4.8.3/../../../../pic32mx/lib\libpic32.a(default-on-bootstrap.o)
 .debug_ranges  0x00000030       0x10 c:/program files (x86)/microchip/xc32/v1.44/bin/bin/../../lib/gcc/pic32mx/4.8.3/../../../../pic32mx/lib\libpic32.a(default-general-exception-handler.o)
 .debug_ranges  0x00000040       0x10 c:/program files (x86)/microchip/xc32/v1.44/bin/bin/../../lib/gcc/pic32mx/4.8.3/../../../../pic32mx/lib\libpic32.a(defaultinterrupt.o)
 .debug_ranges  0x00000050       0x10 c:/program files (x86)/microchip/xc32/v1.44/bin/bin/../../lib/gcc/pic32mx/4.8.3/../../../../pic32mx/lib\libc.a(printf_cdnopuxX.eo)
 .debug_ranges  0x00000060       0x10 c:/program files (x86)/microchip/xc32/v1.44/bin/bin/../../lib/gcc/pic32mx/4.8.3/../../../../pic32mx/lib\libc.a(doprnt_cdnopuxX.eo)
 .debug_ranges  0x00000070       0x10 c:/program files (x86)/microchip/xc32/v1.44/bin/bin/../../lib/gcc/pic32mx/4.8.3/../../../../pic32mx/lib\libc.a(_fputc_simple.o)
 .debug_ranges  0x00000080       0x10 c:/program files (x86)/microchip/xc32/v1.44/bin/bin/../../lib/gcc/pic32mx/4.8.3/../../../../pic32mx/lib\libc.a(_flsbuf_simple.o)
 .debug_ranges  0x00000090       0x98 c:/program files (x86)/microchip/xc32/v1.44/bin/bin/../../lib/gcc/pic32mx/4.8.3\libgcc.a(_udivdi3.o)
 .debug_ranges  0x00000128       0xd8 c:/program files (x86)/microchip/xc32/v1.44/bin/bin/../../lib/gcc/pic32mx/4.8.3\libgcc.a(_umoddi3.o)
 .debug_ranges  0x00000200       0x10 c:/program files (x86)/microchip/xc32/v1.44/bin/bin/../../lib/gcc/pic32mx/4.8.3/../../../../pic32mx/lib\libpic32.a(write.o)
 .debug_ranges  0x00000210       0x10 c:/program files (x86)/microchip/xc32/v1.44/bin/bin/../../lib/gcc/pic32mx/4.8.3/../../../../pic32mx/lib\libpic32.a(_mon_putc.o)

.gnu.attributes
                0x00000000       0x10
 *(.gnu.attributes)
 .gnu.attributes
                0x00000000       0x10 build/default/production/_ext/449926602/ble_api.o
 .gnu.attributes
                0x00000010       0x10 build/default/production/_ext/449926602/ble_manager.o
 .gnu.attributes
                0x00000020       0x10 build/default/production/_ext/449926602/bm_application_mode.o
 .gnu.attributes
                0x00000030       0x10 build/default/production/_ext/449926602/bm_program_mode.o
 .gnu.attributes
                0x00000040       0x10 build/default/production/_ext/449926602/bm_utils.o
 .gnu.attributes
                0x00000050       0x10 build/default/production/_ext/449926602/dfu_api.o
 .gnu.attributes
                0x00000060       0x10 build/default/production/_ext/449926602/dfu_manager.o
 .gnu.attributes
                0x00000070       0x10 build/default/production/_ext/449926602/event_mem.o
 .gnu.attributes
                0x00000080       0x10 build/default/production/_ext/449926602/fifo.o
 .gnu.attributes
                0x00000090       0x10 build/default/production/_ext/449926602/interface.o
 .gnu.attributes
                0x000000a0       0x10 build/default/production/_ext/449926602/memory.o
 .gnu.attributes
                0x000000b0       0x10 build/default/production/_ext/449926602/platform_pic.o
 .gnu.attributes
                0x000000c0       0x10 build/default/production/_ext/1819808422/clear_core_sw0_leg_lib.o
 .gnu.attributes
                0x000000d0       0x10 build/default/production/_ext/1819808422/clear_core_sw0_lib.o
 .gnu.attributes
                0x000000e0       0x10 build/default/production/_ext/1819808422/clear_core_sw1_leg_lib.o
 .gnu.attributes
                0x000000f0       0x10 build/default/production/_ext/1819808422/clear_core_sw1_lib.o
 .gnu.attributes
                0x00000100       0x10 build/default/production/_ext/1819808422/int_configure_system_lib.o
 .gnu.attributes
                0x00000110       0x10 build/default/production/_ext/1819808422/int_disable_interrupts_lib.o
 .gnu.attributes
                0x00000120       0x10 build/default/production/_ext/1819808422/int_enable_interrupts_lib.o
 .gnu.attributes
                0x00000130       0x10 build/default/production/_ext/1819808422/int_enable_mv_int_lib.o
 .gnu.attributes
                0x00000140       0x10 build/default/production/_ext/1819808422/int_enable_sv_int_lib.o
 .gnu.attributes
                0x00000150       0x10 build/default/production/_ext/1819808422/int_get_pending_int_lib.o
 .gnu.attributes
                0x00000160       0x10 build/default/production/_ext/1819808422/int_restore_interrupts_lib.o
 .gnu.attributes
                0x00000170       0x10 build/default/production/_ext/1819808422/int_set_ebase_lib.o
 .gnu.attributes
                0x00000180       0x10 build/default/production/_ext/1819808422/int_set_ebase_vs_lib.o
 .gnu.attributes
                0x00000190       0x10 build/default/production/_ext/1819808422/int_set_vector_spacing_lib.o
 .gnu.attributes
                0x000001a0       0x10 build/default/production/_ext/1819808422/int_tbl_5xx_6xx_7xx_lib.o
 .gnu.attributes
                0x000001b0       0x10 build/default/production/_ext/1819808422/int_tbl_legacy_lib.o
 .gnu.attributes
                0x000001c0       0x10 build/default/production/_ext/1819808422/int_tbl_lib.o
 .gnu.attributes
                0x000001d0       0x10 build/default/production/_ext/1819808422/int_tbl_lib_obs.o
 .gnu.attributes
                0x000001e0       0x10 build/default/production/_ext/1819808422/set_core_sw0_leg_lib.o
 .gnu.attributes
                0x000001f0       0x10 build/default/production/_ext/1819808422/set_core_sw0_lib.o
 .gnu.attributes
                0x00000200       0x10 build/default/production/_ext/1819808422/set_core_sw1_leg_lib.o
 .gnu.attributes
                0x00000210       0x10 build/default/production/_ext/1819808422/set_core_sw1_lib.o
 .gnu.attributes
                0x00000220       0x10 build/default/production/_ext/1986190483/pcache.o
 .gnu.attributes
                0x00000230       0x10 build/default/production/_ext/2046243727/uart_lib.o
 .gnu.attributes
                0x00000240       0x10 build/default/production/_ext/8382566/time.o
 .gnu.attributes
                0x00000250       0x10 build/default/production/_ext/8382566/uart_app.o
 .gnu.attributes
                0x00000260       0x10 build/default/production/_ext/8382566/uart_drv.o
 .gnu.attributes
                0x00000270       0x10 build/default/production/_ext/1472/main.o
 .gnu.attributes
                0x00000280       0x10 c:/program files (x86)/microchip/xc32/v1.44/bin/bin/../../lib/gcc/pic32mx/4.8.3/../../../../pic32mx/lib\libpic32.a(default-bootstrap-exception-handler.o)
 .gnu.attributes
                0x00000290       0x10 c:/program files (x86)/microchip/xc32/v1.44/bin/bin/../../lib/gcc/pic32mx/4.8.3/../../../../pic32mx/lib\libpic32.a(default-on-reset.o)
 .gnu.attributes
                0x000002a0       0x10 c:/program files (x86)/microchip/xc32/v1.44/bin/bin/../../lib/gcc/pic32mx/4.8.3/../../../../pic32mx/lib\libpic32.a(default-on-bootstrap.o)
 .gnu.attributes
                0x000002b0       0x10 c:/program files (x86)/microchip/xc32/v1.44/bin/bin/../../lib/gcc/pic32mx/4.8.3/../../../../pic32mx/lib\libpic32.a(default-general-exception-handler.o)
 .gnu.attributes
                0x000002c0       0x10 c:/program files (x86)/microchip/xc32/v1.44/bin/bin/../../lib/gcc/pic32mx/4.8.3/../../../../pic32mx/lib\libpic32.a(defaultinterrupt.o)
 .gnu.attributes
                0x000002d0       0x10 c:/program files (x86)/microchip/xc32/v1.44/bin/bin/../../lib/gcc/pic32mx/4.8.3/../../../../pic32mx/lib\libc.a(printf_cdnopuxX.eo)
 .gnu.attributes
                0x000002e0       0x10 c:/program files (x86)/microchip/xc32/v1.44/bin/bin/../../lib/gcc/pic32mx/4.8.3/../../../../pic32mx/lib\libc.a(_iob.o)
 .gnu.attributes
                0x000002f0       0x10 c:/program files (x86)/microchip/xc32/v1.44/bin/bin/../../lib/gcc/pic32mx/4.8.3/../../../../pic32mx/lib\libc.a(doprnt_cdnopuxX.eo)
 .gnu.attributes
                0x00000300       0x10 c:/program files (x86)/microchip/xc32/v1.44/bin/bin/../../lib/gcc/pic32mx/4.8.3/../../../../pic32mx/lib\libc.a(_fputc_simple.o)
 .gnu.attributes
                0x00000310       0x10 c:/program files (x86)/microchip/xc32/v1.44/bin/bin/../../lib/gcc/pic32mx/4.8.3/../../../../pic32mx/lib\libc.a(ctype.o)
 .gnu.attributes
                0x00000320       0x10 c:/program files (x86)/microchip/xc32/v1.44/bin/bin/../../lib/gcc/pic32mx/4.8.3/../../../../pic32mx/lib\libc.a(_flsbuf_simple.o)
 .gnu.attributes
                0x00000330       0x10 c:/program files (x86)/microchip/xc32/v1.44/bin/bin/../../lib/gcc/pic32mx/4.8.3\libgcc.a(_udivdi3.o)
 .gnu.attributes
                0x00000340       0x10 c:/program files (x86)/microchip/xc32/v1.44/bin/bin/../../lib/gcc/pic32mx/4.8.3\libgcc.a(_umoddi3.o)
 .gnu.attributes
                0x00000350       0x10 c:/program files (x86)/microchip/xc32/v1.44/bin/bin/../../lib/gcc/pic32mx/4.8.3/../../../../pic32mx/lib\libpic32.a(write.o)
 .gnu.attributes
                0x00000360       0x10 c:/program files (x86)/microchip/xc32/v1.44/bin/bin/../../lib/gcc/pic32mx/4.8.3/../../../../pic32mx/lib\libpic32.a(_mon_putc.o)
 .gnu.attributes
                0x00000370       0x10 c:/program files (x86)/microchip/xc32/v1.44/bin/bin/../../lib/gcc/pic32mx/4.8.3/../../../../pic32mx/lib\libpic32.a(xc32_uart.o)
LOAD c:/program files (x86)/microchip/xc32/v1.44/bin/bin/../../lib/gcc/pic32mx/4.8.3\libgcc.a
START GROUP
LOAD c:/program files (x86)/microchip/xc32/v1.44/bin/bin/../../lib/gcc/pic32mx/4.8.3/../../../../pic32mx/lib\libpic32.a
LOAD c:/program files (x86)/microchip/xc32/v1.44/bin/bin/../../lib/gcc/pic32mx/4.8.3/../../../../pic32mx/lib\libdebug.a
LOAD c:/program files (x86)/microchip/xc32/v1.44/bin/bin/../../lib/gcc/pic32mx/4.8.3/../../../../pic32mx/lib\libpic32.a
LOAD c:/program files (x86)/microchip/xc32/v1.44/bin/bin/../../lib/gcc/pic32mx/4.8.3/../../../../pic32mx/lib\libc.a
LOAD c:/program files (x86)/microchip/xc32/v1.44/bin/bin/../../lib/gcc/pic32mx/4.8.3/../../../../pic32mx/lib\libc.a
LOAD c:/program files (x86)/microchip/xc32/v1.44/bin/bin/../../lib/gcc/pic32mx/4.8.3/../../../../pic32mx/lib\libm.a
LOAD c:/program files (x86)/microchip/xc32/v1.44/bin/bin/../../lib/gcc/pic32mx/4.8.3/../../../../pic32mx/lib\libe.a
LOAD c:/program files (x86)/microchip/xc32/v1.44/bin/bin/../../lib/gcc/pic32mx/4.8.3/../../../../pic32mx/lib\libdsp.a
LOAD c:/program files (x86)/microchip/xc32/v1.44/bin/bin/../../lib/gcc/pic32mx/4.8.3\libgcc.a
LOAD c:/program files (x86)/microchip/xc32/v1.44/bin/bin/../../lib/gcc/pic32mx/4.8.3/../../../../pic32mx/lib\libpic32.a
END GROUP
LOAD c:/program files (x86)/microchip/xc32/v1.44/bin/bin/../../lib/gcc/pic32mx/4.8.3\libgcc.a
OUTPUT(dist/default/production/DFU_Demo.X.production.elf elf32-tradlittlemips)
LOAD stack
LOAD data_init

.reginfo        0x00000000       0x18
 .reginfo       0x00000000       0x18 c:/program files (x86)/microchip/xc32/v1.44/bin/bin/../../lib/gcc/pic32mx/4.8.3/../../../../pic32mx/lib/./proc/32MX795F512L/crt0_mips32r2.o

.stack          0xa00019c8      0x400
 .stack         0xa00019c8      0x400 stack

.bss            0xa0000b14      0x6d0
 .bss           0xa0000b14      0x450 build/default/production/_ext/449926602/interface.o
 .bss           0xa0000f64      0x280 build/default/production/_ext/449926602/bm_program_mode.o

.data           0xa00011e4      0x1b8
 .data          0xa00011e4      0x1b8 build/default/production/_ext/449926602/bm_application_mode.o

.bss            0xa000139c       0xa8
 .bss           0xa000139c       0xa8 build/default/production/_ext/449926602/ble_manager.o
                0xa00013fc                ble_mgr_gap_event_cb
                0xa0001408                ble_mgr_gatt_server_event_cb
                0xa0001414                ble_mgr_gatt_client_event_cb
                0xa0001420                ble_mgr_common_event_cb
                0xa000142c                ble_mgr_pairing_event_cb
                0xa0001438                ble_mgr_gatt_tp_event_cb

.data           0xa0001444       0xa4
 .data          0xa0001444       0xa4 c:/program files (x86)/microchip/xc32/v1.44/bin/bin/../../lib/gcc/pic32mx/4.8.3/../../../../pic32mx/lib\libc.a(_iob.o)
                0xa0001444                _Files
                0xa0001448                _iob

.bss            0xa00014e8       0x44
 .bss           0xa00014e8       0x44 c:/program files (x86)/microchip/xc32/v1.44/bin/bin/../../lib/gcc/pic32mx/4.8.3/../../../../pic32mx/lib\libc.a(_iob.o)
                0xa00014e8                _sobuf
                0xa0001508                _sibuf
                0xa0001528                _outdone

.data           0xa000152c       0x68
 .data          0xa000152c       0x34 build/default/production/_ext/449926602/ble_manager.o
                0xa000152c                pf_cfg
 .data          0xa0001560       0x34 build/default/production/_ext/449926602/dfu_manager.o

.bss            0xa0001594       0x18
 .bss           0xa0001594        0xc build/default/production/_ext/449926602/bm_application_mode.o
                0xa0001594                appEvent
 .bss           0xa00015a0        0xc build/default/production/_ext/449926602/event_mem.o

.bss            0x00000000        0x0
 .bss           0x00000000        0x0 c:/program files (x86)/microchip/xc32/v1.44/bin/bin/../../lib/gcc/pic32mx/4.8.3/../../../../pic32mx/lib\libpic32.a(xc32_uart.o)

.data           0x00000000        0x0
 .data          0x00000000        0x0 c:/program files (x86)/microchip/xc32/v1.44/bin/bin/../../lib/gcc/pic32mx/4.8.3/../../../../pic32mx/lib\libpic32.a(xc32_uart.o)

.bss            0x00000000        0x0
 .bss           0x00000000        0x0 c:/program files (x86)/microchip/xc32/v1.44/bin/bin/../../lib/gcc/pic32mx/4.8.3/../../../../pic32mx/lib\libpic32.a(_mon_putc.o)

.data           0x00000000        0x0
 .data          0x00000000        0x0 c:/program files (x86)/microchip/xc32/v1.44/bin/bin/../../lib/gcc/pic32mx/4.8.3/../../../../pic32mx/lib\libpic32.a(_mon_putc.o)

.bss            0x00000000        0x0
 .bss           0x00000000        0x0 c:/program files (x86)/microchip/xc32/v1.44/bin/bin/../../lib/gcc/pic32mx/4.8.3/../../../../pic32mx/lib\libpic32.a(write.o)

.data           0x00000000        0x0
 .data          0x00000000        0x0 c:/program files (x86)/microchip/xc32/v1.44/bin/bin/../../lib/gcc/pic32mx/4.8.3/../../../../pic32mx/lib\libpic32.a(write.o)

.bss            0x00000000        0x0
 .bss           0x00000000        0x0 c:/program files (x86)/microchip/xc32/v1.44/bin/bin/../../lib/gcc/pic32mx/4.8.3\libgcc.a(_umoddi3.o)

.data           0x00000000        0x0
 .data          0x00000000        0x0 c:/program files (x86)/microchip/xc32/v1.44/bin/bin/../../lib/gcc/pic32mx/4.8.3\libgcc.a(_umoddi3.o)

.bss            0x00000000        0x0
 .bss           0x00000000        0x0 c:/program files (x86)/microchip/xc32/v1.44/bin/bin/../../lib/gcc/pic32mx/4.8.3\libgcc.a(_udivdi3.o)

.data           0x00000000        0x0
 .data          0x00000000        0x0 c:/program files (x86)/microchip/xc32/v1.44/bin/bin/../../lib/gcc/pic32mx/4.8.3\libgcc.a(_udivdi3.o)

.bss            0x00000000        0x0
 .bss           0x00000000        0x0 c:/program files (x86)/microchip/xc32/v1.44/bin/bin/../../lib/gcc/pic32mx/4.8.3/../../../../pic32mx/lib\libc.a(_flsbuf_simple.o)

.data           0x00000000        0x0
 .data          0x00000000        0x0 c:/program files (x86)/microchip/xc32/v1.44/bin/bin/../../lib/gcc/pic32mx/4.8.3/../../../../pic32mx/lib\libc.a(_flsbuf_simple.o)

.bss            0x00000000        0x0
 .bss           0x00000000        0x0 c:/program files (x86)/microchip/xc32/v1.44/bin/bin/../../lib/gcc/pic32mx/4.8.3/../../../../pic32mx/lib\libc.a(ctype.o)

.data           0x00000000        0x0
 .data          0x00000000        0x0 c:/program files (x86)/microchip/xc32/v1.44/bin/bin/../../lib/gcc/pic32mx/4.8.3/../../../../pic32mx/lib\libc.a(ctype.o)

.bss            0x00000000        0x0
 .bss           0x00000000        0x0 c:/program files (x86)/microchip/xc32/v1.44/bin/bin/../../lib/gcc/pic32mx/4.8.3/../../../../pic32mx/lib\libc.a(_fputc_simple.o)

.data           0x00000000        0x0
 .data          0x00000000        0x0 c:/program files (x86)/microchip/xc32/v1.44/bin/bin/../../lib/gcc/pic32mx/4.8.3/../../../../pic32mx/lib\libc.a(_fputc_simple.o)

.bss            0x00000000        0x0
 .bss           0x00000000        0x0 c:/program files (x86)/microchip/xc32/v1.44/bin/bin/../../lib/gcc/pic32mx/4.8.3/../../../../pic32mx/lib\libc.a(doprnt_cdnopuxX.eo)

.data           0x00000000        0x0
 .data          0x00000000        0x0 c:/program files (x86)/microchip/xc32/v1.44/bin/bin/../../lib/gcc/pic32mx/4.8.3/../../../../pic32mx/lib\libc.a(doprnt_cdnopuxX.eo)

.bss            0x00000000        0x0
 .bss           0x00000000        0x0 c:/program files (x86)/microchip/xc32/v1.44/bin/bin/../../lib/gcc/pic32mx/4.8.3/../../../../pic32mx/lib\libc.a(printf_cdnopuxX.eo)

.data           0x00000000        0x0
 .data          0x00000000        0x0 c:/program files (x86)/microchip/xc32/v1.44/bin/bin/../../lib/gcc/pic32mx/4.8.3/../../../../pic32mx/lib\libc.a(printf_cdnopuxX.eo)

.bss            0x00000000        0x0
 .bss           0x00000000        0x0 c:/program files (x86)/microchip/xc32/v1.44/bin/bin/../../lib/gcc/pic32mx/4.8.3/../../../../pic32mx/lib\libpic32.a(defaultinterrupt.o)

.data           0x00000000        0x0
 .data          0x00000000        0x0 c:/program files (x86)/microchip/xc32/v1.44/bin/bin/../../lib/gcc/pic32mx/4.8.3/../../../../pic32mx/lib\libpic32.a(defaultinterrupt.o)

.bss            0x00000000        0x0
 .bss           0x00000000        0x0 c:/program files (x86)/microchip/xc32/v1.44/bin/bin/../../lib/gcc/pic32mx/4.8.3/../../../../pic32mx/lib\libpic32.a(default-general-exception-handler.o)

.data           0x00000000        0x0
 .data          0x00000000        0x0 c:/program files (x86)/microchip/xc32/v1.44/bin/bin/../../lib/gcc/pic32mx/4.8.3/../../../../pic32mx/lib\libpic32.a(default-general-exception-handler.o)

.bss            0x00000000        0x0
 .bss           0x00000000        0x0 c:/program files (x86)/microchip/xc32/v1.44/bin/bin/../../lib/gcc/pic32mx/4.8.3/../../../../pic32mx/lib\libpic32.a(vector51.o)

.data           0x00000000        0x0
 .data          0x00000000        0x0 c:/program files (x86)/microchip/xc32/v1.44/bin/bin/../../lib/gcc/pic32mx/4.8.3/../../../../pic32mx/lib\libpic32.a(vector51.o)

.bss            0x00000000        0x0
 .bss           0x00000000        0x0 c:/program files (x86)/microchip/xc32/v1.44/bin/bin/../../lib/gcc/pic32mx/4.8.3/../../../../pic32mx/lib\libpic32.a(vector50.o)

.data           0x00000000        0x0
 .data          0x00000000        0x0 c:/program files (x86)/microchip/xc32/v1.44/bin/bin/../../lib/gcc/pic32mx/4.8.3/../../../../pic32mx/lib\libpic32.a(vector50.o)

.bss            0x00000000        0x0
 .bss           0x00000000        0x0 c:/program files (x86)/microchip/xc32/v1.44/bin/bin/../../lib/gcc/pic32mx/4.8.3/../../../../pic32mx/lib\libpic32.a(vector49.o)

.data           0x00000000        0x0
 .data          0x00000000        0x0 c:/program files (x86)/microchip/xc32/v1.44/bin/bin/../../lib/gcc/pic32mx/4.8.3/../../../../pic32mx/lib\libpic32.a(vector49.o)

.bss            0x00000000        0x0
 .bss           0x00000000        0x0 c:/program files (x86)/microchip/xc32/v1.44/bin/bin/../../lib/gcc/pic32mx/4.8.3/../../../../pic32mx/lib\libpic32.a(vector48.o)

.data           0x00000000        0x0
 .data          0x00000000        0x0 c:/program files (x86)/microchip/xc32/v1.44/bin/bin/../../lib/gcc/pic32mx/4.8.3/../../../../pic32mx/lib\libpic32.a(vector48.o)

.bss            0x00000000        0x0
 .bss           0x00000000        0x0 c:/program files (x86)/microchip/xc32/v1.44/bin/bin/../../lib/gcc/pic32mx/4.8.3/../../../../pic32mx/lib\libpic32.a(vector47.o)

.data           0x00000000        0x0
 .data          0x00000000        0x0 c:/program files (x86)/microchip/xc32/v1.44/bin/bin/../../lib/gcc/pic32mx/4.8.3/../../../../pic32mx/lib\libpic32.a(vector47.o)

.bss            0x00000000        0x0
 .bss           0x00000000        0x0 c:/program files (x86)/microchip/xc32/v1.44/bin/bin/../../lib/gcc/pic32mx/4.8.3/../../../../pic32mx/lib\libpic32.a(vector46.o)

.data           0x00000000        0x0
 .data          0x00000000        0x0 c:/program files (x86)/microchip/xc32/v1.44/bin/bin/../../lib/gcc/pic32mx/4.8.3/../../../../pic32mx/lib\libpic32.a(vector46.o)

.bss            0x00000000        0x0
 .bss           0x00000000        0x0 c:/program files (x86)/microchip/xc32/v1.44/bin/bin/../../lib/gcc/pic32mx/4.8.3/../../../../pic32mx/lib\libpic32.a(vector45.o)

.data           0x00000000        0x0
 .data          0x00000000        0x0 c:/program files (x86)/microchip/xc32/v1.44/bin/bin/../../lib/gcc/pic32mx/4.8.3/../../../../pic32mx/lib\libpic32.a(vector45.o)

.bss            0x00000000        0x0
 .bss           0x00000000        0x0 c:/program files (x86)/microchip/xc32/v1.44/bin/bin/../../lib/gcc/pic32mx/4.8.3/../../../../pic32mx/lib\libpic32.a(vector44.o)

.data           0x00000000        0x0
 .data          0x00000000        0x0 c:/program files (x86)/microchip/xc32/v1.44/bin/bin/../../lib/gcc/pic32mx/4.8.3/../../../../pic32mx/lib\libpic32.a(vector44.o)

.bss            0x00000000        0x0
 .bss           0x00000000        0x0 c:/program files (x86)/microchip/xc32/v1.44/bin/bin/../../lib/gcc/pic32mx/4.8.3/../../../../pic32mx/lib\libpic32.a(vector43.o)

.data           0x00000000        0x0
 .data          0x00000000        0x0 c:/program files (x86)/microchip/xc32/v1.44/bin/bin/../../lib/gcc/pic32mx/4.8.3/../../../../pic32mx/lib\libpic32.a(vector43.o)

.bss            0x00000000        0x0
 .bss           0x00000000        0x0 c:/program files (x86)/microchip/xc32/v1.44/bin/bin/../../lib/gcc/pic32mx/4.8.3/../../../../pic32mx/lib\libpic32.a(vector42.o)

.data           0x00000000        0x0
 .data          0x00000000        0x0 c:/program files (x86)/microchip/xc32/v1.44/bin/bin/../../lib/gcc/pic32mx/4.8.3/../../../../pic32mx/lib\libpic32.a(vector42.o)

.bss            0x00000000        0x0
 .bss           0x00000000        0x0 c:/program files (x86)/microchip/xc32/v1.44/bin/bin/../../lib/gcc/pic32mx/4.8.3/../../../../pic32mx/lib\libpic32.a(vector41.o)

.data           0x00000000        0x0
 .data          0x00000000        0x0 c:/program files (x86)/microchip/xc32/v1.44/bin/bin/../../lib/gcc/pic32mx/4.8.3/../../../../pic32mx/lib\libpic32.a(vector41.o)

.bss            0x00000000        0x0
 .bss           0x00000000        0x0 c:/program files (x86)/microchip/xc32/v1.44/bin/bin/../../lib/gcc/pic32mx/4.8.3/../../../../pic32mx/lib\libpic32.a(vector40.o)

.data           0x00000000        0x0
 .data          0x00000000        0x0 c:/program files (x86)/microchip/xc32/v1.44/bin/bin/../../lib/gcc/pic32mx/4.8.3/../../../../pic32mx/lib\libpic32.a(vector40.o)

.bss            0x00000000        0x0
 .bss           0x00000000        0x0 c:/program files (x86)/microchip/xc32/v1.44/bin/bin/../../lib/gcc/pic32mx/4.8.3/../../../../pic32mx/lib\libpic32.a(vector39.o)

.data           0x00000000        0x0
 .data          0x00000000        0x0 c:/program files (x86)/microchip/xc32/v1.44/bin/bin/../../lib/gcc/pic32mx/4.8.3/../../../../pic32mx/lib\libpic32.a(vector39.o)

.bss            0x00000000        0x0
 .bss           0x00000000        0x0 c:/program files (x86)/microchip/xc32/v1.44/bin/bin/../../lib/gcc/pic32mx/4.8.3/../../../../pic32mx/lib\libpic32.a(vector38.o)

.data           0x00000000        0x0
 .data          0x00000000        0x0 c:/program files (x86)/microchip/xc32/v1.44/bin/bin/../../lib/gcc/pic32mx/4.8.3/../../../../pic32mx/lib\libpic32.a(vector38.o)

.bss            0x00000000        0x0
 .bss           0x00000000        0x0 c:/program files (x86)/microchip/xc32/v1.44/bin/bin/../../lib/gcc/pic32mx/4.8.3/../../../../pic32mx/lib\libpic32.a(vector37.o)

.data           0x00000000        0x0
 .data          0x00000000        0x0 c:/program files (x86)/microchip/xc32/v1.44/bin/bin/../../lib/gcc/pic32mx/4.8.3/../../../../pic32mx/lib\libpic32.a(vector37.o)

.bss            0x00000000        0x0
 .bss           0x00000000        0x0 c:/program files (x86)/microchip/xc32/v1.44/bin/bin/../../lib/gcc/pic32mx/4.8.3/../../../../pic32mx/lib\libpic32.a(vector36.o)

.data           0x00000000        0x0
 .data          0x00000000        0x0 c:/program files (x86)/microchip/xc32/v1.44/bin/bin/../../lib/gcc/pic32mx/4.8.3/../../../../pic32mx/lib\libpic32.a(vector36.o)

.bss            0x00000000        0x0
 .bss           0x00000000        0x0 c:/program files (x86)/microchip/xc32/v1.44/bin/bin/../../lib/gcc/pic32mx/4.8.3/../../../../pic32mx/lib\libpic32.a(vector35.o)

.data           0x00000000        0x0
 .data          0x00000000        0x0 c:/program files (x86)/microchip/xc32/v1.44/bin/bin/../../lib/gcc/pic32mx/4.8.3/../../../../pic32mx/lib\libpic32.a(vector35.o)

.bss            0x00000000        0x0
 .bss           0x00000000        0x0 c:/program files (x86)/microchip/xc32/v1.44/bin/bin/../../lib/gcc/pic32mx/4.8.3/../../../../pic32mx/lib\libpic32.a(vector34.o)

.data           0x00000000        0x0
 .data          0x00000000        0x0 c:/program files (x86)/microchip/xc32/v1.44/bin/bin/../../lib/gcc/pic32mx/4.8.3/../../../../pic32mx/lib\libpic32.a(vector34.o)

.bss            0x00000000        0x0
 .bss           0x00000000        0x0 c:/program files (x86)/microchip/xc32/v1.44/bin/bin/../../lib/gcc/pic32mx/4.8.3/../../../../pic32mx/lib\libpic32.a(vector33.o)

.data           0x00000000        0x0
 .data          0x00000000        0x0 c:/program files (x86)/microchip/xc32/v1.44/bin/bin/../../lib/gcc/pic32mx/4.8.3/../../../../pic32mx/lib\libpic32.a(vector33.o)

.bss            0x00000000        0x0
 .bss           0x00000000        0x0 c:/program files (x86)/microchip/xc32/v1.44/bin/bin/../../lib/gcc/pic32mx/4.8.3/../../../../pic32mx/lib\libpic32.a(vector31.o)

.data           0x00000000        0x0
 .data          0x00000000        0x0 c:/program files (x86)/microchip/xc32/v1.44/bin/bin/../../lib/gcc/pic32mx/4.8.3/../../../../pic32mx/lib\libpic32.a(vector31.o)

.bss            0x00000000        0x0
 .bss           0x00000000        0x0 c:/program files (x86)/microchip/xc32/v1.44/bin/bin/../../lib/gcc/pic32mx/4.8.3/../../../../pic32mx/lib\libpic32.a(vector30.o)

.data           0x00000000        0x0
 .data          0x00000000        0x0 c:/program files (x86)/microchip/xc32/v1.44/bin/bin/../../lib/gcc/pic32mx/4.8.3/../../../../pic32mx/lib\libpic32.a(vector30.o)

.bss            0x00000000        0x0
 .bss           0x00000000        0x0 c:/program files (x86)/microchip/xc32/v1.44/bin/bin/../../lib/gcc/pic32mx/4.8.3/../../../../pic32mx/lib\libpic32.a(vector29.o)

.data           0x00000000        0x0
 .data          0x00000000        0x0 c:/program files (x86)/microchip/xc32/v1.44/bin/bin/../../lib/gcc/pic32mx/4.8.3/../../../../pic32mx/lib\libpic32.a(vector29.o)

.bss            0x00000000        0x0
 .bss           0x00000000        0x0 c:/program files (x86)/microchip/xc32/v1.44/bin/bin/../../lib/gcc/pic32mx/4.8.3/../../../../pic32mx/lib\libpic32.a(vector28.o)

.data           0x00000000        0x0
 .data          0x00000000        0x0 c:/program files (x86)/microchip/xc32/v1.44/bin/bin/../../lib/gcc/pic32mx/4.8.3/../../../../pic32mx/lib\libpic32.a(vector28.o)

.bss            0x00000000        0x0
 .bss           0x00000000        0x0 c:/program files (x86)/microchip/xc32/v1.44/bin/bin/../../lib/gcc/pic32mx/4.8.3/../../../../pic32mx/lib\libpic32.a(vector27.o)

.data           0x00000000        0x0
 .data          0x00000000        0x0 c:/program files (x86)/microchip/xc32/v1.44/bin/bin/../../lib/gcc/pic32mx/4.8.3/../../../../pic32mx/lib\libpic32.a(vector27.o)

.bss            0x00000000        0x0
 .bss           0x00000000        0x0 c:/program files (x86)/microchip/xc32/v1.44/bin/bin/../../lib/gcc/pic32mx/4.8.3/../../../../pic32mx/lib\libpic32.a(vector26.o)

.data           0x00000000        0x0
 .data          0x00000000        0x0 c:/program files (x86)/microchip/xc32/v1.44/bin/bin/../../lib/gcc/pic32mx/4.8.3/../../../../pic32mx/lib\libpic32.a(vector26.o)

.bss            0x00000000        0x0
 .bss           0x00000000        0x0 c:/program files (x86)/microchip/xc32/v1.44/bin/bin/../../lib/gcc/pic32mx/4.8.3/../../../../pic32mx/lib\libpic32.a(vector25.o)

.data           0x00000000        0x0
 .data          0x00000000        0x0 c:/program files (x86)/microchip/xc32/v1.44/bin/bin/../../lib/gcc/pic32mx/4.8.3/../../../../pic32mx/lib\libpic32.a(vector25.o)

.bss            0x00000000        0x0
 .bss           0x00000000        0x0 c:/program files (x86)/microchip/xc32/v1.44/bin/bin/../../lib/gcc/pic32mx/4.8.3/../../../../pic32mx/lib\libpic32.a(vector23.o)

.data           0x00000000        0x0
 .data          0x00000000        0x0 c:/program files (x86)/microchip/xc32/v1.44/bin/bin/../../lib/gcc/pic32mx/4.8.3/../../../../pic32mx/lib\libpic32.a(vector23.o)

.bss            0x00000000        0x0
 .bss           0x00000000        0x0 c:/program files (x86)/microchip/xc32/v1.44/bin/bin/../../lib/gcc/pic32mx/4.8.3/../../../../pic32mx/lib\libpic32.a(vector22.o)

.data           0x00000000        0x0
 .data          0x00000000        0x0 c:/program files (x86)/microchip/xc32/v1.44/bin/bin/../../lib/gcc/pic32mx/4.8.3/../../../../pic32mx/lib\libpic32.a(vector22.o)

.bss            0x00000000        0x0
 .bss           0x00000000        0x0 c:/program files (x86)/microchip/xc32/v1.44/bin/bin/../../lib/gcc/pic32mx/4.8.3/../../../../pic32mx/lib\libpic32.a(vector21.o)

.data           0x00000000        0x0
 .data          0x00000000        0x0 c:/program files (x86)/microchip/xc32/v1.44/bin/bin/../../lib/gcc/pic32mx/4.8.3/../../../../pic32mx/lib\libpic32.a(vector21.o)

.bss            0x00000000        0x0
 .bss           0x00000000        0x0 c:/program files (x86)/microchip/xc32/v1.44/bin/bin/../../lib/gcc/pic32mx/4.8.3/../../../../pic32mx/lib\libpic32.a(vector20.o)

.data           0x00000000        0x0
 .data          0x00000000        0x0 c:/program files (x86)/microchip/xc32/v1.44/bin/bin/../../lib/gcc/pic32mx/4.8.3/../../../../pic32mx/lib\libpic32.a(vector20.o)

.bss            0x00000000        0x0
 .bss           0x00000000        0x0 c:/program files (x86)/microchip/xc32/v1.44/bin/bin/../../lib/gcc/pic32mx/4.8.3/../../../../pic32mx/lib\libpic32.a(vector19.o)

.data           0x00000000        0x0
 .data          0x00000000        0x0 c:/program files (x86)/microchip/xc32/v1.44/bin/bin/../../lib/gcc/pic32mx/4.8.3/../../../../pic32mx/lib\libpic32.a(vector19.o)

.bss            0x00000000        0x0
 .bss           0x00000000        0x0 c:/program files (x86)/microchip/xc32/v1.44/bin/bin/../../lib/gcc/pic32mx/4.8.3/../../../../pic32mx/lib\libpic32.a(vector18.o)

.data           0x00000000        0x0
 .data          0x00000000        0x0 c:/program files (x86)/microchip/xc32/v1.44/bin/bin/../../lib/gcc/pic32mx/4.8.3/../../../../pic32mx/lib\libpic32.a(vector18.o)

.bss            0x00000000        0x0
 .bss           0x00000000        0x0 c:/program files (x86)/microchip/xc32/v1.44/bin/bin/../../lib/gcc/pic32mx/4.8.3/../../../../pic32mx/lib\libpic32.a(vector17.o)

.data           0x00000000        0x0
 .data          0x00000000        0x0 c:/program files (x86)/microchip/xc32/v1.44/bin/bin/../../lib/gcc/pic32mx/4.8.3/../../../../pic32mx/lib\libpic32.a(vector17.o)

.bss            0x00000000        0x0
 .bss           0x00000000        0x0 c:/program files (x86)/microchip/xc32/v1.44/bin/bin/../../lib/gcc/pic32mx/4.8.3/../../../../pic32mx/lib\libpic32.a(vector16.o)

.data           0x00000000        0x0
 .data          0x00000000        0x0 c:/program files (x86)/microchip/xc32/v1.44/bin/bin/../../lib/gcc/pic32mx/4.8.3/../../../../pic32mx/lib\libpic32.a(vector16.o)

.bss            0x00000000        0x0
 .bss           0x00000000        0x0 c:/program files (x86)/microchip/xc32/v1.44/bin/bin/../../lib/gcc/pic32mx/4.8.3/../../../../pic32mx/lib\libpic32.a(vector15.o)

.data           0x00000000        0x0
 .data          0x00000000        0x0 c:/program files (x86)/microchip/xc32/v1.44/bin/bin/../../lib/gcc/pic32mx/4.8.3/../../../../pic32mx/lib\libpic32.a(vector15.o)

.bss            0x00000000        0x0
 .bss           0x00000000        0x0 c:/program files (x86)/microchip/xc32/v1.44/bin/bin/../../lib/gcc/pic32mx/4.8.3/../../../../pic32mx/lib\libpic32.a(vector14.o)

.data           0x00000000        0x0
 .data          0x00000000        0x0 c:/program files (x86)/microchip/xc32/v1.44/bin/bin/../../lib/gcc/pic32mx/4.8.3/../../../../pic32mx/lib\libpic32.a(vector14.o)

.bss            0x00000000        0x0
 .bss           0x00000000        0x0 c:/program files (x86)/microchip/xc32/v1.44/bin/bin/../../lib/gcc/pic32mx/4.8.3/../../../../pic32mx/lib\libpic32.a(vector13.o)

.data           0x00000000        0x0
 .data          0x00000000        0x0 c:/program files (x86)/microchip/xc32/v1.44/bin/bin/../../lib/gcc/pic32mx/4.8.3/../../../../pic32mx/lib\libpic32.a(vector13.o)

.bss            0x00000000        0x0
 .bss           0x00000000        0x0 c:/program files (x86)/microchip/xc32/v1.44/bin/bin/../../lib/gcc/pic32mx/4.8.3/../../../../pic32mx/lib\libpic32.a(vector12.o)

.data           0x00000000        0x0
 .data          0x00000000        0x0 c:/program files (x86)/microchip/xc32/v1.44/bin/bin/../../lib/gcc/pic32mx/4.8.3/../../../../pic32mx/lib\libpic32.a(vector12.o)

.bss            0x00000000        0x0
 .bss           0x00000000        0x0 c:/program files (x86)/microchip/xc32/v1.44/bin/bin/../../lib/gcc/pic32mx/4.8.3/../../../../pic32mx/lib\libpic32.a(vector11.o)

.data           0x00000000        0x0
 .data          0x00000000        0x0 c:/program files (x86)/microchip/xc32/v1.44/bin/bin/../../lib/gcc/pic32mx/4.8.3/../../../../pic32mx/lib\libpic32.a(vector11.o)

.bss            0x00000000        0x0
 .bss           0x00000000        0x0 c:/program files (x86)/microchip/xc32/v1.44/bin/bin/../../lib/gcc/pic32mx/4.8.3/../../../../pic32mx/lib\libpic32.a(vector10.o)

.data           0x00000000        0x0
 .data          0x00000000        0x0 c:/program files (x86)/microchip/xc32/v1.44/bin/bin/../../lib/gcc/pic32mx/4.8.3/../../../../pic32mx/lib\libpic32.a(vector10.o)

.bss            0x00000000        0x0
 .bss           0x00000000        0x0 c:/program files (x86)/microchip/xc32/v1.44/bin/bin/../../lib/gcc/pic32mx/4.8.3/../../../../pic32mx/lib\libpic32.a(vector9.o)

.data           0x00000000        0x0
 .data          0x00000000        0x0 c:/program files (x86)/microchip/xc32/v1.44/bin/bin/../../lib/gcc/pic32mx/4.8.3/../../../../pic32mx/lib\libpic32.a(vector9.o)

.bss            0x00000000        0x0
 .bss           0x00000000        0x0 c:/program files (x86)/microchip/xc32/v1.44/bin/bin/../../lib/gcc/pic32mx/4.8.3/../../../../pic32mx/lib\libpic32.a(vector8.o)

.data           0x00000000        0x0
 .data          0x00000000        0x0 c:/program files (x86)/microchip/xc32/v1.44/bin/bin/../../lib/gcc/pic32mx/4.8.3/../../../../pic32mx/lib\libpic32.a(vector8.o)

.bss            0x00000000        0x0
 .bss           0x00000000        0x0 c:/program files (x86)/microchip/xc32/v1.44/bin/bin/../../lib/gcc/pic32mx/4.8.3/../../../../pic32mx/lib\libpic32.a(vector7.o)

.data           0x00000000        0x0
 .data          0x00000000        0x0 c:/program files (x86)/microchip/xc32/v1.44/bin/bin/../../lib/gcc/pic32mx/4.8.3/../../../../pic32mx/lib\libpic32.a(vector7.o)

.bss            0x00000000        0x0
 .bss           0x00000000        0x0 c:/program files (x86)/microchip/xc32/v1.44/bin/bin/../../lib/gcc/pic32mx/4.8.3/../../../../pic32mx/lib\libpic32.a(vector6.o)

.data           0x00000000        0x0
 .data          0x00000000        0x0 c:/program files (x86)/microchip/xc32/v1.44/bin/bin/../../lib/gcc/pic32mx/4.8.3/../../../../pic32mx/lib\libpic32.a(vector6.o)

.bss            0x00000000        0x0
 .bss           0x00000000        0x0 c:/program files (x86)/microchip/xc32/v1.44/bin/bin/../../lib/gcc/pic32mx/4.8.3/../../../../pic32mx/lib\libpic32.a(vector5.o)

.data           0x00000000        0x0
 .data          0x00000000        0x0 c:/program files (x86)/microchip/xc32/v1.44/bin/bin/../../lib/gcc/pic32mx/4.8.3/../../../../pic32mx/lib\libpic32.a(vector5.o)

.bss            0x00000000        0x0
 .bss           0x00000000        0x0 c:/program files (x86)/microchip/xc32/v1.44/bin/bin/../../lib/gcc/pic32mx/4.8.3/../../../../pic32mx/lib\libpic32.a(vector3.o)

.data           0x00000000        0x0
 .data          0x00000000        0x0 c:/program files (x86)/microchip/xc32/v1.44/bin/bin/../../lib/gcc/pic32mx/4.8.3/../../../../pic32mx/lib\libpic32.a(vector3.o)

.bss            0x00000000        0x0
 .bss           0x00000000        0x0 c:/program files (x86)/microchip/xc32/v1.44/bin/bin/../../lib/gcc/pic32mx/4.8.3/../../../../pic32mx/lib\libpic32.a(vector2.o)

.data           0x00000000        0x0
 .data          0x00000000        0x0 c:/program files (x86)/microchip/xc32/v1.44/bin/bin/../../lib/gcc/pic32mx/4.8.3/../../../../pic32mx/lib\libpic32.a(vector2.o)

.bss            0x00000000        0x0
 .bss           0x00000000        0x0 c:/program files (x86)/microchip/xc32/v1.44/bin/bin/../../lib/gcc/pic32mx/4.8.3/../../../../pic32mx/lib\libpic32.a(vector1.o)

.data           0x00000000        0x0
 .data          0x00000000        0x0 c:/program files (x86)/microchip/xc32/v1.44/bin/bin/../../lib/gcc/pic32mx/4.8.3/../../../../pic32mx/lib\libpic32.a(vector1.o)

.bss            0x00000000        0x0
 .bss           0x00000000        0x0 c:/program files (x86)/microchip/xc32/v1.44/bin/bin/../../lib/gcc/pic32mx/4.8.3/../../../../pic32mx/lib\libpic32.a(vector0.o)

.data           0x00000000        0x0
 .data          0x00000000        0x0 c:/program files (x86)/microchip/xc32/v1.44/bin/bin/../../lib/gcc/pic32mx/4.8.3/../../../../pic32mx/lib\libpic32.a(vector0.o)

.bss            0x00000000        0x0
 .bss           0x00000000        0x0 c:/program files (x86)/microchip/xc32/v1.44/bin/bin/../../lib/gcc/pic32mx/4.8.3/../../../../pic32mx/lib\libpic32.a(general-exception.o)

.data           0x00000000        0x0
 .data          0x00000000        0x0 c:/program files (x86)/microchip/xc32/v1.44/bin/bin/../../lib/gcc/pic32mx/4.8.3/../../../../pic32mx/lib\libpic32.a(general-exception.o)

.bss            0x00000000        0x0
 .bss           0x00000000        0x0 c:/program files (x86)/microchip/xc32/v1.44/bin/bin/../../lib/gcc/pic32mx/4.8.3/../../../../pic32mx/lib\libpic32.a(default-nmi-handler.o)

.data           0x00000000        0x0
 .data          0x00000000        0x0 c:/program files (x86)/microchip/xc32/v1.44/bin/bin/../../lib/gcc/pic32mx/4.8.3/../../../../pic32mx/lib\libpic32.a(default-nmi-handler.o)

.bss            0x00000000        0x0
 .bss           0x00000000        0x0 c:/program files (x86)/microchip/xc32/v1.44/bin/bin/../../lib/gcc/pic32mx/4.8.3/../../../../pic32mx/lib\libpic32.a(default-on-bootstrap.o)

.data           0x00000000        0x0
 .data          0x00000000        0x0 c:/program files (x86)/microchip/xc32/v1.44/bin/bin/../../lib/gcc/pic32mx/4.8.3/../../../../pic32mx/lib\libpic32.a(default-on-bootstrap.o)

.bss            0x00000000        0x0
 .bss           0x00000000        0x0 c:/program files (x86)/microchip/xc32/v1.44/bin/bin/../../lib/gcc/pic32mx/4.8.3/../../../../pic32mx/lib\libpic32.a(default-on-reset.o)

.data           0x00000000        0x0
 .data          0x00000000        0x0 c:/program files (x86)/microchip/xc32/v1.44/bin/bin/../../lib/gcc/pic32mx/4.8.3/../../../../pic32mx/lib\libpic32.a(default-on-reset.o)

.bss            0x00000000        0x0
 .bss           0x00000000        0x0 c:/program files (x86)/microchip/xc32/v1.44/bin/bin/../../lib/gcc/pic32mx/4.8.3/../../../../pic32mx/lib\libpic32.a(default-bootstrap-exception-handler.o)

.data           0x00000000        0x0
 .data          0x00000000        0x0 c:/program files (x86)/microchip/xc32/v1.44/bin/bin/../../lib/gcc/pic32mx/4.8.3/../../../../pic32mx/lib\libpic32.a(default-bootstrap-exception-handler.o)

.bss            0x00000000        0x0
 .bss           0x00000000        0x0 c:/program files (x86)/microchip/xc32/v1.44/bin/bin/../../lib/gcc/pic32mx/4.8.3/../../../../pic32mx/lib\libpic32.a(strlen.o)

.data           0x00000000        0x0
 .data          0x00000000        0x0 c:/program files (x86)/microchip/xc32/v1.44/bin/bin/../../lib/gcc/pic32mx/4.8.3/../../../../pic32mx/lib\libpic32.a(strlen.o)

.bss            0x00000000        0x0
 .bss           0x00000000        0x0 c:/program files (x86)/microchip/xc32/v1.44/bin/bin/../../lib/gcc/pic32mx/4.8.3/../../../../pic32mx/lib\libpic32.a(memset.o)

.data           0x00000000        0x0
 .data          0x00000000        0x0 c:/program files (x86)/microchip/xc32/v1.44/bin/bin/../../lib/gcc/pic32mx/4.8.3/../../../../pic32mx/lib\libpic32.a(memset.o)

.bss            0x00000000        0x0
 .bss           0x00000000        0x0 c:/program files (x86)/microchip/xc32/v1.44/bin/bin/../../lib/gcc/pic32mx/4.8.3/../../../../pic32mx/lib\libpic32.a(memcpy.o)

.data           0x00000000        0x0
 .data          0x00000000        0x0 c:/program files (x86)/microchip/xc32/v1.44/bin/bin/../../lib/gcc/pic32mx/4.8.3/../../../../pic32mx/lib\libpic32.a(memcpy.o)

.bss            0x00000000        0x0
 .bss           0x00000000        0x0 c:/program files (x86)/microchip/xc32/v1.44/bin/bin/../../lib/gcc/pic32mx/4.8.3/../../../../pic32mx/lib\libpic32.a(memcmp.o)

.data           0x00000000        0x0
 .data          0x00000000        0x0 c:/program files (x86)/microchip/xc32/v1.44/bin/bin/../../lib/gcc/pic32mx/4.8.3/../../../../pic32mx/lib\libpic32.a(memcmp.o)

.bss            0x00000000        0x0
 .bss           0x00000000        0x0 c:/program files (x86)/microchip/xc32/v1.44/bin/bin/../../lib/gcc/pic32mx/4.8.3/../../../../pic32mx/lib/./proc/32MX795F512L\processor.o

.data           0x00000000        0x0
 .data          0x00000000        0x0 c:/program files (x86)/microchip/xc32/v1.44/bin/bin/../../lib/gcc/pic32mx/4.8.3/../../../../pic32mx/lib/./proc/32MX795F512L\processor.o

.bss            0x00000000        0x0
 .bss           0x00000000        0x0 c:/program files (x86)/microchip/xc32/v1.44/bin/bin/../../lib/gcc/pic32mx/4.8.3/../../../../pic32mx/lib\pic32_software_reset.o

.data           0x00000000        0x0
 .data          0x00000000        0x0 c:/program files (x86)/microchip/xc32/v1.44/bin/bin/../../lib/gcc/pic32mx/4.8.3/../../../../pic32mx/lib\pic32_software_reset.o

.bss            0x00000000        0x0
 .bss           0x00000000        0x0 c:/program files (x86)/microchip/xc32/v1.44/bin/bin/../../lib/gcc/pic32mx/4.8.3/../../../../pic32mx/lib/./proc/32MX795F512L\default_isr_vectors.o

.data           0x00000000        0x0
 .data          0x00000000        0x0 c:/program files (x86)/microchip/xc32/v1.44/bin/bin/../../lib/gcc/pic32mx/4.8.3/../../../../pic32mx/lib/./proc/32MX795F512L\default_isr_vectors.o

.bss            0x00000000        0x0
 .bss           0x00000000        0x0 build/default/production/_ext/1472/main.o

.data           0x00000000        0x0
 .data          0x00000000        0x0 build/default/production/_ext/1472/main.o

.bss            0x00000000        0x0
 .bss           0x00000000        0x0 build/default/production/_ext/8382566/uart_drv.o

.data           0x00000000        0x0
 .data          0x00000000        0x0 build/default/production/_ext/8382566/uart_drv.o

.bss            0x00000000        0x0
 .bss           0x00000000        0x0 build/default/production/_ext/8382566/uart_app.o

.data           0x00000000        0x0
 .data          0x00000000        0x0 build/default/production/_ext/8382566/uart_app.o

.bss            0x00000000        0x0
 .bss           0x00000000        0x0 build/default/production/_ext/8382566/time.o

.data           0x00000000        0x0
 .data          0x00000000        0x0 build/default/production/_ext/8382566/time.o

.bss            0x00000000        0x0
 .bss           0x00000000        0x0 build/default/production/_ext/2046243727/uart_lib.o

.data           0x00000000        0x0
 .data          0x00000000        0x0 build/default/production/_ext/2046243727/uart_lib.o

.bss            0x00000000        0x0
 .bss           0x00000000        0x0 build/default/production/_ext/1986190483/pcache.o

.data           0x00000000        0x0
 .data          0x00000000        0x0 build/default/production/_ext/1986190483/pcache.o

.bss            0x00000000        0x0
 .bss           0x00000000        0x0 build/default/production/_ext/1819808422/set_core_sw1_lib.o

.data           0x00000000        0x0
 .data          0x00000000        0x0 build/default/production/_ext/1819808422/set_core_sw1_lib.o

.bss            0x00000000        0x0
 .bss           0x00000000        0x0 build/default/production/_ext/1819808422/set_core_sw1_leg_lib.o

.data           0x00000000        0x0
 .data          0x00000000        0x0 build/default/production/_ext/1819808422/set_core_sw1_leg_lib.o

.bss            0x00000000        0x0
 .bss           0x00000000        0x0 build/default/production/_ext/1819808422/set_core_sw0_lib.o

.data           0x00000000        0x0
 .data          0x00000000        0x0 build/default/production/_ext/1819808422/set_core_sw0_lib.o

.bss            0x00000000        0x0
 .bss           0x00000000        0x0 build/default/production/_ext/1819808422/set_core_sw0_leg_lib.o

.data           0x00000000        0x0
 .data          0x00000000        0x0 build/default/production/_ext/1819808422/set_core_sw0_leg_lib.o

.bss            0x00000000        0x0
 .bss           0x00000000        0x0 build/default/production/_ext/1819808422/int_tbl_lib_obs.o

.data           0x00000000        0x0
 .data          0x00000000        0x0 build/default/production/_ext/1819808422/int_tbl_lib_obs.o

.bss            0x00000000        0x0
 .bss           0x00000000        0x0 build/default/production/_ext/1819808422/int_tbl_lib.o

.data           0x00000000        0x0
 .data          0x00000000        0x0 build/default/production/_ext/1819808422/int_tbl_lib.o

.bss            0x00000000        0x0
 .bss           0x00000000        0x0 build/default/production/_ext/1819808422/int_tbl_legacy_lib.o

.data           0x00000000        0x0
 .data          0x00000000        0x0 build/default/production/_ext/1819808422/int_tbl_legacy_lib.o

.bss            0x00000000        0x0
 .bss           0x00000000        0x0 build/default/production/_ext/1819808422/int_tbl_5xx_6xx_7xx_lib.o

.data           0x00000000        0x0
 .data          0x00000000        0x0 build/default/production/_ext/1819808422/int_tbl_5xx_6xx_7xx_lib.o

.bss            0x00000000        0x0
 .bss           0x00000000        0x0 build/default/production/_ext/1819808422/int_set_vector_spacing_lib.o

.data           0x00000000        0x0
 .data          0x00000000        0x0 build/default/production/_ext/1819808422/int_set_vector_spacing_lib.o

.bss            0x00000000        0x0
 .bss           0x00000000        0x0 build/default/production/_ext/1819808422/int_set_ebase_vs_lib.o

.data           0x00000000        0x0
 .data          0x00000000        0x0 build/default/production/_ext/1819808422/int_set_ebase_vs_lib.o

.bss            0x00000000        0x0
 .bss           0x00000000        0x0 build/default/production/_ext/1819808422/int_set_ebase_lib.o

.data           0x00000000        0x0
 .data          0x00000000        0x0 build/default/production/_ext/1819808422/int_set_ebase_lib.o

.bss            0x00000000        0x0
 .bss           0x00000000        0x0 build/default/production/_ext/1819808422/int_restore_interrupts_lib.o

.data           0x00000000        0x0
 .data          0x00000000        0x0 build/default/production/_ext/1819808422/int_restore_interrupts_lib.o

.bss            0x00000000        0x0
 .bss           0x00000000        0x0 build/default/production/_ext/1819808422/int_get_pending_int_lib.o

.data           0x00000000        0x0
 .data          0x00000000        0x0 build/default/production/_ext/1819808422/int_get_pending_int_lib.o

.bss            0x00000000        0x0
 .bss           0x00000000        0x0 build/default/production/_ext/1819808422/int_enable_sv_int_lib.o

.data           0x00000000        0x0
 .data          0x00000000        0x0 build/default/production/_ext/1819808422/int_enable_sv_int_lib.o

.bss            0x00000000        0x0
 .bss           0x00000000        0x0 build/default/production/_ext/1819808422/int_enable_mv_int_lib.o

.data           0x00000000        0x0
 .data          0x00000000        0x0 build/default/production/_ext/1819808422/int_enable_mv_int_lib.o

.bss            0x00000000        0x0
 .bss           0x00000000        0x0 build/default/production/_ext/1819808422/int_enable_interrupts_lib.o

.data           0x00000000        0x0
 .data          0x00000000        0x0 build/default/production/_ext/1819808422/int_enable_interrupts_lib.o

.bss            0x00000000        0x0
 .bss           0x00000000        0x0 build/default/production/_ext/1819808422/int_disable_interrupts_lib.o

.data           0x00000000        0x0
 .data          0x00000000        0x0 build/default/production/_ext/1819808422/int_disable_interrupts_lib.o

.bss            0x00000000        0x0
 .bss           0x00000000        0x0 build/default/production/_ext/1819808422/int_configure_system_lib.o

.data           0x00000000        0x0
 .data          0x00000000        0x0 build/default/production/_ext/1819808422/int_configure_system_lib.o

.bss            0x00000000        0x0
 .bss           0x00000000        0x0 build/default/production/_ext/1819808422/clear_core_sw1_lib.o

.data           0x00000000        0x0
 .data          0x00000000        0x0 build/default/production/_ext/1819808422/clear_core_sw1_lib.o

.bss            0x00000000        0x0
 .bss           0x00000000        0x0 build/default/production/_ext/1819808422/clear_core_sw1_leg_lib.o

.data           0x00000000        0x0
 .data          0x00000000        0x0 build/default/production/_ext/1819808422/clear_core_sw1_leg_lib.o

.bss            0x00000000        0x0
 .bss           0x00000000        0x0 build/default/production/_ext/1819808422/clear_core_sw0_lib.o

.data           0x00000000        0x0
 .data          0x00000000        0x0 build/default/production/_ext/1819808422/clear_core_sw0_lib.o

.bss            0x00000000        0x0
 .bss           0x00000000        0x0 build/default/production/_ext/1819808422/clear_core_sw0_leg_lib.o

.data           0x00000000        0x0
 .data          0x00000000        0x0 build/default/production/_ext/1819808422/clear_core_sw0_leg_lib.o

.bss            0x00000000        0x0
 .bss           0x00000000        0x0 build/default/production/_ext/449926602/platform_pic.o

.data           0x00000000        0x0
 .data          0x00000000        0x0 build/default/production/_ext/449926602/platform_pic.o

.bss            0x00000000        0x0
 .bss           0x00000000        0x0 build/default/production/_ext/449926602/memory.o

.data           0x00000000        0x0
 .data          0x00000000        0x0 build/default/production/_ext/449926602/memory.o

.data           0x00000000        0x0
 .data          0x00000000        0x0 build/default/production/_ext/449926602/interface.o

.bss            0x00000000        0x0
 .bss           0x00000000        0x0 build/default/production/_ext/449926602/fifo.o

.data           0x00000000        0x0
 .data          0x00000000        0x0 build/default/production/_ext/449926602/fifo.o

.data           0x00000000        0x0
 .data          0x00000000        0x0 build/default/production/_ext/449926602/event_mem.o

.bss            0x00000000        0x0
 .bss           0x00000000        0x0 build/default/production/_ext/449926602/dfu_manager.o

.bss            0x00000000        0x0
 .bss           0x00000000        0x0 build/default/production/_ext/449926602/dfu_api.o

.data           0x00000000        0x0
 .data          0x00000000        0x0 build/default/production/_ext/449926602/dfu_api.o

.bss            0x00000000        0x0
 .bss           0x00000000        0x0 build/default/production/_ext/449926602/bm_utils.o

.data           0x00000000        0x0
 .data          0x00000000        0x0 build/default/production/_ext/449926602/bm_utils.o

.data           0x00000000        0x0
 .data          0x00000000        0x0 build/default/production/_ext/449926602/bm_program_mode.o

.bss            0x00000000        0x0
 .bss           0x00000000        0x0 build/default/production/_ext/449926602/ble_api.o

.data           0x00000000        0x0
 .data          0x00000000        0x0 build/default/production/_ext/449926602/ble_api.o

.bss            0x00000000        0x0
 .bss           0x00000000        0x0 c:/program files (x86)/microchip/xc32/v1.44/bin/bin/../../lib/gcc/pic32mx/4.8.3/../../../../pic32mx/lib\debug-exception-return.o

.data           0x00000000        0x0
 .data          0x00000000        0x0 c:/program files (x86)/microchip/xc32/v1.44/bin/bin/../../lib/gcc/pic32mx/4.8.3/../../../../pic32mx/lib\debug-exception-return.o

.bss            0x00000000        0x0
 .bss           0x00000000        0x0 c:/program files (x86)/microchip/xc32/v1.44/bin/bin/../../lib/gcc/pic32mx/4.8.3/../../../../pic32mx/lib/./proc/32MX795F512L/crt0_mips32r2.o

.data           0x00000000        0x0
 .data          0x00000000        0x0 c:/program files (x86)/microchip/xc32/v1.44/bin/bin/../../lib/gcc/pic32mx/4.8.3/../../../../pic32mx/lib/./proc/32MX795F512L/crt0_mips32r2.o

._debug_exception
                0xbfc00480       0x2c
 ._debug_exception
                0xbfc00480       0x2c c:/program files (x86)/microchip/xc32/v1.44/bin/bin/../../lib/gcc/pic32mx/4.8.3/../../../../pic32mx/lib\debug-exception-return.o
                0xbfc00480                __DbgExecReturn

.rodata         0x9d000000    0x40058
 .rodata        0x9d000000    0x40058 build/default/production/_ext/1472/main.o
                0x9d000000                dfu_image

.text           0x9d040058     0x8280
 .text          0x9d040058     0x48c4 build/default/production/_ext/449926602/ble_api.o
                0x9d0404b0                ble_init
                0x9d040580                ble_adv_data_set
                0x9d040670                ble_scan_resp_data_set
                0x9d040760                ble_adv_param_set
                0x9d040900                ble_adv_start
                0x9d040990                ble_adv_stop
                0x9d040a1c                ble_set_device_name
                0x9d040ae0                ble_pair_request
                0x9d040b68                ble_pair_mode_set
                0x9d040be8                ble_pair_mode_get
                0x9d040c44                ble_pair_passkey_enter
                0x9d040d58                ble_pair_passkey_reply
                0x9d040de0                ble_pair_passkey_erase_digits
                0x9d040eb0                ble_pair_passkey_clear
                0x9d040f38                ble_pair_passkey_confirm
                0x9d040fcc                ble_pair_device_erase_all
                0x9d041028                ble_pair_device_delete
                0x9d0410b0                ble_enable_transparent_uart
                0x9d041170                ble_send_transparent_data
                0x9d041250                ble_rssi_read
                0x9d041304                ble_scan_param_set
                0x9d041410                ble_scan_start
                0x9d0414b4                ble_set_connection_params
                0x9d0415bc                ble_create_connection
                0x9d041660                ble_cancel_connection
                0x9d0416e8                ble_update_connection_parameter
                0x9d0418a8                ble_disconnect_device
                0x9d041914                ble_primary_service_discover_all
                0x9d0419c8                ble_primary_service_characteristics_discover
                0x9d041abc                ble_characteristic_read_by_uuid
                0x9d041bbc                ble_characteristic_read
                0x9d041c94                ble_characteristic_write_with_response
                0x9d041d8c                ble_characteristic_write_without_respose
                0x9d041e84                ble_characteristic_reliable_write_request_prepare
                0x9d041f58                ble_characteristic_reliable_write_request_execute
                0x9d041fe8                ble_characteristic_reliable_write_request_cancel
                0x9d042078                ble_characteristic_attribute_read_request
                0x9d042120                ble_characteristic_value_send
                0x9d042210                ble_characteristic_value_update
                0x9d0422e4                ble_characteristic_value_read
                0x9d0423a0                ble_primary_service_read_all
                0x9d042428                ble_primary_service_characteristics_read
                0x9d042500                ble_write_response_send
                0x9d0425dc                ble_read_response_send
                0x9d042694                ble_characteristic_reliable_write_response_prepare
                0x9d042794                ble_characteristic_reliable_write_response_execute
                0x9d04284c                ble_characteristic_attribute_read_response
                0x9d042914                ble_error_response_send
                0x9d0429d0                ble_shutdown
                0x9d042a2c                ble_response_check
                0x9d042a6c                ble_gatt_service_create
 .text          0x9d04491c     0x39bc build/default/production/_ext/449926602/bm_application_mode.o
                0x9d04491c                BM_APPLICATION_Init
                0x9d044980                BM_APPLICATION_DeInit
                0x9d044ae4                BM_APPLICATION_ResponseCheck
                0x9d044e7c                BM_APPLICATION_LocalInformationReadPkt
                0x9d044ec0                BM_APPLICATION_ResetPkt
                0x9d044f08                BM_APPLICATION_StatusReadPkt
                0x9d044f50                BM_APPLICATION_ADCReadPkt
                0x9d044fa4                BM_APPLICATION_ShutdownPkt
                0x9d044fec                BM_APPLICATION_DebugPkt
                0x9d04510c                BM_APPLICATION_DeviceNameReadPkt
                0x9d045154                BM_APPLICATION_DeviceNameWritePkt
                0x9d0452d4                BM_APPLICATION_PairDeviceListErasePkt
                0x9d04531c                BM_APPLICATION_PairModeReadPkt
                0x9d045364                BM_APPLICATION_PairModeWritePkt
                0x9d0453c8                BM_APPLICATION_PairDeviceListReadPkt
                0x9d045410                BM_APPLICATION_DIOControlPkt
                0x9d04545c                BM_APPLICATION_PWMControlPkt
                0x9d0454a8                BM_APPLICATION_PairDeviceDeletePkt
                0x9d0454fc                BM_APPLICATION_RSSIReadPkt
                0x9d045550                BM_APPLICATION_AdvertisementDataWritePkt
                0x9d0456dc                BM_APPLICATION_AdvertisementParameterSetPkt
                0x9d045728                BM_APPLICATION_AdvertisementEnableSetPkt
                0x9d04577c                BM_APPLICATION_ScanDataWritePkt
                0x9d045908                BM_APPLICATION_ScanParameterSetPkt
                0x9d045a30                BM_APPLICATION_ScanEnableSetPkt
                0x9d045b1c                BM_APPLICATION_ConnParameterSetPkt
                0x9d045c9c                BM_APPLICATION_ConnectDevicePkt
                0x9d045dac                BM_APPLICATION_ConnectDeviceCancelPkt
                0x9d045df4                BM_APPLICATION_ConnectionParameterUpdatePkt
                0x9d045f40                BM_APPLICATION_DisconnectDevicePkt
                0x9d045f94                BM_APPLICATION_RemoteDeviceNameReadPkt
                0x9d045fe8                BM_APPLICATION_ClientAllServicesDiscoverPkt
                0x9d04603c                BM_APPLICATION_ClientCharacteristicsDiscoverPkt
                0x9d0461c4                BM_APPLICATION_ClientCharacteristicHandleReadPkt
                0x9d0462d0                BM_APPLICATION_ClientCharacteristicUUIDReadPkt
                0x9d046458                BM_APPLICATION_ClientCharacteristicHandleWritePkt
                0x9d046618                BM_APPLICATION_ClientWriteRequestPreparePkt
                0x9d0467d8                BM_APPLICATION_ClientWriteRequestExecutePkt
                0x9d0468dc                BM_APPLICATION_ClientBlobRequestReadPkt
                0x9d046a08                BM_APPLICATION_ClientHandleValueConfirmPkt
                0x9d046a5c                BM_APPLICATION_ServerCharacteristicSendPkt
                0x9d046c04                BM_APPLICATION_ServerCharacteristicUpdatePkt
                0x9d046d9c                BM_APPLICATION_ServerCharacteristicReadPkt
                0x9d046df0                BM_APPLICATION_ServerPrimaryServicesReadPkt
                0x9d046e38                BM_APPLICATION_ServerPrimaryServiceReadPkt
                0x9d046f9c                BM_APPLICATION_ServerWriteResponseSendPkt
                0x9d0470c0                BM_APPLICATION_ServerReadResponseSendPkt
                0x9d047254                BM_APPLICATION_ServerWriteResponsePreparePkt
                0x9d047434                BM_APPLICATION_ServerWriteExecutePreparePkt
                0x9d047520                BM_APPLICATION_ServerBlobResponseReadPkt
                0x9d0476b4                BM_APPLICATION_ServerErrorResponsePkt
                0x9d0477d8                BM_APPLICATION_EnableTransparentUartSetPkt
                0x9d0478dc                BM_APPLICATION_SendTransparentDataPkt
                0x9d047a10                BM_APPLICATION_ConfigureModeClosePkt
                0x9d047a64                BM_APPLICATION_PairRequest
                0x9d047ab8                BM_APPLICATION_PairPassKeyDigitEnterPkt
                0x9d047b30                BM_APPLICATION_PairPassKeyDigitErasePkt
                0x9d047b9c                BM_APPLICATION_PairPassKeyClearPkt
                0x9d047c08                BM_APPLICATION_PairPassKeyEntryCompletePkt
                0x9d047c74                BM_APPLICATION_PairYesNoConfirmPkt
                0x9d047d10                BM_APPLICATION_ServerCreateService
                0x9d047e6c                BM_Application_EventParser
                0x9d04800c                BM_APPLICATION_AdvReportEventParser
                0x9d04812c                BM_APPLICATION_ConnCompleteEventParser
                0x9d0481b0                BM_APPLICATION_ConnParamUpdateEventParser
                0x9d048234                BM_APPLICATION_LeEndTestResultEventParser
                0x9d048284                BM_APPLICATION_WriteCharValueEventParser

.text           0x9d0482d8     0x28e0
 .text          0x9d0482d8     0x16c8 build/default/production/_ext/449926602/ble_manager.o
                0x9d0482d8                ble_mgr_events_register_callback
                0x9d048e60                ble_mgr_device_init
                0x9d048f04                ble_mgr_adv_start
                0x9d049048                ble_mgr_adv_stop
                0x9d049080                ble_mgr_scan_start
                0x9d049104                ble_mgr_scan_stop
                0x9d049154                ble_mgr_start_connection
                0x9d049198                ble_mgr_transparent_uart_enable
                0x9d0491f8                ble_mgr_transparent_uart_disable
                0x9d049254                ble_mgr_transparent_uart_send
                0x9d0492b4                ble_mgr_peripheral_device_match_params
                0x9d049310                ble_mgr_check_match_param
                0x9d049454                ble_mgr_get_event
 .text          0x9d0499a0     0x1218 build/default/production/_ext/449926602/bm_utils.o
                0x9d0499a0                BM_ConfigurationLibraryVersion
                0x9d0499c4                set_to_upper
                0x9d049a24                get_hex_byte
                0x9d049b48                get_hex
                0x9d049c00                get_hex_24bit
                0x9d049cb4                get_hex_bdaddrs
                0x9d049ddc                get_hex_long
                0x9d049f04                get_hex_dword
                0x9d049fb8                format_hex_byte
                0x9d04a090                format_hex_byte2
                0x9d04a15c                format_hex
                0x9d04a238                format_hex_24bit
                0x9d04a310                format_hex_bdaddrs
                0x9d04a400                format_hex_bdaddrs2
                0x9d04a564                format_hex_long
                0x9d04a648                memcpy_ascii_reorder
                0x9d04a6e8                memcpy_ascii_order
                0x9d04a77c                memcpy_inplace_reorder
                0x9d04a874                memcpy_nibble_inplace_reorder
                0x9d04a9dc                memcpy_nibble_reorder
                0x9d04aa90                memcpy_reorder
                0x9d04ab18                calc_chksum_8bit

.text           0x9d04abb8     0x1b84
 .text          0x9d04abb8      0xe7c build/default/production/_ext/449926602/bm_program_mode.o
                0x9d04abb8                BM_PROGRAM_Init
                0x9d04ac20                BM_PROGRAM_DeInit
                0x9d04ac44                BM_PROGRAM_Connect
                0x9d04ad28                BM_PROGRAM_Disconnect
                0x9d04adcc                BM_PROGRAM_Erase
                0x9d04af24                BM_PROGRAM_Write
                0x9d04b16c                BM_PROGRAM_Write_Continue
                0x9d04b344                BM_PROGRAM_Read
                0x9d04b49c                BM_PROGRAM_CRC_Get
                0x9d04b604                BM_PROGRAM_ResponseCheck
 .text          0x9d04ba34      0xd08 build/default/production/_ext/449926602/interface.o
                0x9d04bee0                interface_init
                0x9d04c128                init_fifo
                0x9d04c16c                interface_cmd_send_no_wait
                0x9d04c1b8                interface_cmd_send_wait
                0x9d04c284                interface_cmd_wait
                0x9d04c330                store_uart_data
                0x9d04c3c0                interface_process_fifo_data
                0x9d04c4f0                is_waiting_for_this_response
                0x9d04c548                is_waiting_for_response
                0x9d04c588                interface_event_process
                0x9d04c694                interface_event_get
                0x9d04c714                get_received_cmd_frame

.text._vfprintf_cdnopuxX
                0x9d04c73c      0xc8c
 .text._vfprintf_cdnopuxX
                0x9d04c73c      0xc8c c:/program files (x86)/microchip/xc32/v1.44/bin/bin/../../lib/gcc/pic32mx/4.8.3/../../../../pic32mx/lib\libc.a(doprnt_cdnopuxX.eo)
                0x9d04c73c                _vfprintf_cdnopuxX

.text           0x9d04d3c8     0x1114
 .text          0x9d04d3c8      0x8d0 build/default/production/_ext/449926602/platform_pic.o
                0x9d04d3c8                platform_init
                0x9d04d400                configure_usart
                0x9d04d430                configure_usart_callbacks
                0x9d04d450                usart_read_callback
                0x9d04d498                platform_send_sync
                0x9d04d4dc                platform_recv_async
                0x9d04d508                platform_process_rxdata
                0x9d04d550                read_data_async
                0x9d04d584                uart_read_data
                0x9d04d5c0                read_async_callback
                0x9d04d5fc                platform_gpio_set
                0x9d04d820                platform_host_wake_interrupt_handler
                0x9d04d840                platform_create_timer
                0x9d04d878                platform_delete_timer
                0x9d04d89c                platform_start_timer
                0x9d04d8d4                platform_stop_timer
                0x9d04d8f8                platform_sleep
                0x9d04d91c                platform_mode_set
                0x9d04daa0                platform_wakeup_pin_status
                0x9d04dac4                platform_ble_mode_select
 .text          0x9d04dc98      0x844 build/default/production/_ext/8382566/uart_drv.o
                0x9d04dc98                uart_init
                0x9d04dd98                uart_open
                0x9d04dddc                uart_close
                0x9d04de20                uart_write
                0x9d04df28                uart_write_byte
                0x9d04e00c                uart_read
                0x9d04e11c                uart_read_byte
                0x9d04e1c4                app_process_rxdata
                0x9d04e1ec                uart_read_callback
                0x9d04e268                IntUart1Handler
                0x9d04e3a4                IntUart2Handler

.text           0x9d04e4dc      0x7dc
 .text          0x9d04e4dc      0x7dc build/default/production/_ext/449926602/dfu_api.o
                0x9d04e4dc                dfu_init
                0x9d04e5d8                dfu_deinit
                0x9d04e640                dfu_program_memory_erase
                0x9d04e714                dfu_program_memory_write
                0x9d04e7fc                dfu_program_memory_write_continue
                0x9d04e960                dfu_program_memory_read
                0x9d04ec78                dfu_response_check

.rodata         0x9d04ecb8      0xfa8
 .rodata        0x9d04ecb8      0x7d4 build/default/production/_ext/1819808422/int_tbl_5xx_6xx_7xx_lib.o
                0x9d04ecb8                __IntSrcTbl
                0x9d04f1d4                __IntVectorTbl
 .rodata        0x9d04f48c      0x7d4 build/default/production/_ext/1819808422/int_tbl_lib.o

.text           0x9d04fc60      0x6bc
 .text          0x9d04fc60      0x6bc build/default/production/_ext/1472/main.o
                0x9d04fc60                main

.rodata         0x9d05031c      0x600
 .rodata        0x9d05031c      0x600 build/default/production/_ext/1819808422/int_tbl_lib_obs.o
                0x9d05031c                __IntTbl

.text           0x9d05091c      0xb80
 .text          0x9d05091c      0x5c4 build/default/production/_ext/449926602/dfu_manager.o
                0x9d05091c                dfu_mgr_init
                0x9d050a2c                dfu_mgr_deinit
                0x9d050adc                dfu_mgr_update_start
                0x9d050c44                dfu_mgr_update_continue
                0x9d050d18                dfu_mgr_update_stop
                0x9d050dec                dfu_mgr_update_verify
 .text          0x9d050ee0      0x5bc build/default/production/_ext/449926602/event_mem.o
                0x9d050ee0                event_fifo_init
                0x9d050f74                event_fifo_empty
                0x9d050fe4                event_fifo_full
                0x9d05104c                event_fifo_write
                0x9d051210                event_fifo_read
                0x9d0512f8                ble_event_get

.text           0x9d05149c      0x544
 .text          0x9d05149c      0x544 build/default/production/_ext/8382566/time.o
                0x9d05149c                TimeInit
                0x9d051570                TimeStart
                0x9d0515a4                TimeStop
                0x9d0515d4                TimeUpdate
                0x9d0516e8                TimeDelay10us
                0x9d051778                TimeDelay1ms
                0x9d0517ec                TimeGet1ms
                0x9d051814                TimeGet100ms
                0x9d05183c                TimeElapsed1ms
                0x9d051888                TimeElapsed100ms
                0x9d0518d4                _T1Interrupt

.rodata         0x9d0519e0      0x51c
 .rodata        0x9d0519e0      0x51c build/default/production/_ext/1819808422/int_tbl_legacy_lib.o
                0x9d0519e0                __IntScrPriTbl

.text           0x9d051efc      0x930
 .text          0x9d051efc      0x4cc build/default/production/_ext/2046243727/uart_lib.o
                0x9d051efc                UARTEnable
                0x9d052010                UARTConfigure
                0x9d05208c                UARTSetFifoMode
                0x9d0520e8                UARTSetDataRate
                0x9d0521dc                UARTGetDataRate
                0x9d05227c                UARTSetLineControl
                0x9d0522d8                UARTSetAddress
                0x9d052358                UARTWatchForAddress
 .text          0x9d0523c8      0x464 c:/program files (x86)/microchip/xc32/v1.44/bin/bin/../../lib/gcc/pic32mx/4.8.3\libgcc.a(_umoddi3.o)
                0x9d0523c8                __umoddi3

.text           0x9d05282c      0x458
 .text          0x9d05282c      0x458 c:/program files (x86)/microchip/xc32/v1.44/bin/bin/../../lib/gcc/pic32mx/4.8.3\libgcc.a(_udivdi3.o)
                0x9d05282c                __udivdi3

.dinit          0x9d052c84      0x3f0
 .dinit         0x9d052c84      0x3f0 data_init

.text           0x9d053074      0x7b0
 .text          0x9d053074      0x3dc build/default/production/_ext/1819808422/int_tbl_lib.o
                0x9d053074                INTClearFlag
                0x9d0530d0                INTSetFlag
                0x9d05312c                INTGetFlag
                0x9d053188                INTEnable
                0x9d053214                INTGetEnable
                0x9d053270                INTSetVectorPriority
                0x9d053300                INTGetVectorPriority
                0x9d053360                INTSetVectorSubPriority
                0x9d0533f0                INTGetVectorSubPriority
 .text          0x9d053450      0x3d4 build/default/production/_ext/1819808422/int_tbl_lib_obs.o

.text           0x9d053824      0x580
 .text          0x9d053824      0x2c4 build/default/production/_ext/8382566/uart_app.o
                0x9d053824                UART_Init
                0x9d05387c                UART_Write
                0x9d0538cc                UART_WriteByte
                0x9d053914                UART_Read
                0x9d0539c8                UART_ReadByte
                0x9d053a10                UART_Readl
                0x9d053a68                UART_Close
                0x9d053aa8                putch
 .text          0x9d053ae8      0x2bc build/default/production/_ext/1819808422/int_tbl_legacy_lib.o
                0x9d053ae8                INTSetPriority
                0x9d053b78                INTGetPriority
                0x9d053bd8                INTSetSubPriority
                0x9d053c68                INTGetSubPriority
                0x9d053cc8                INTSetPriorityAndSubPriority

.text           0x9d053da4      0x48c
 .text          0x9d053da4      0x248 build/default/production/_ext/449926602/fifo.o
                0x9d053da4                fifo_init
                0x9d053e48                fifo_empty
                0x9d053e88                fifo_full
                0x9d053ed4                fifo_get
                0x9d053f60                fifo_put
 .text          0x9d053fec      0x244 build/default/production/_ext/449926602/memory.o
                0x9d053fec                mem_init
                0x9d054034                mem_alloc
                0x9d054168                mem_free

.rodata         0x9d054230      0x1f0
 .rodata        0x9d054230      0x1f0 build/default/production/_ext/449926602/dfu_manager.o

.text           0x9d054420      0x2d0
 .text          0x9d054420      0x168 c:/program files (x86)/microchip/xc32/v1.44/bin/bin/../../lib/gcc/pic32mx/4.8.3/../../../../pic32mx/lib\libpic32.a(memcpy.o)
                0x9d054420                memcpy
 .text          0x9d054588      0x168 c:/program files (x86)/microchip/xc32/v1.44/bin/bin/../../lib/gcc/pic32mx/4.8.3/../../../../pic32mx/lib\libpic32.a(strlen.o)
                0x9d054588                strlen

.text.fputc     0x9d0546f0      0x144
 .text.fputc    0x9d0546f0      0x144 c:/program files (x86)/microchip/xc32/v1.44/bin/bin/../../lib/gcc/pic32mx/4.8.3/../../../../pic32mx/lib\libc.a(_fputc_simple.o)
                0x9d0546f0                fputc

.text._flsbuf   0x9d054834      0x12c
 .text._flsbuf  0x9d054834      0x12c c:/program files (x86)/microchip/xc32/v1.44/bin/bin/../../lib/gcc/pic32mx/4.8.3/../../../../pic32mx/lib\libc.a(_flsbuf_simple.o)
                0x9d054834                _flsbuf

.text           0x9d054960      0x110
 .text          0x9d054960      0x110 build/default/production/_ext/1819808422/int_get_pending_int_lib.o
                0x9d054960                INTGetPendingInterrupt

.rodata         0x9d054a70      0x104
 .rodata        0x9d054a70      0x104 c:/program files (x86)/microchip/xc32/v1.44/bin/bin/../../lib/gcc/pic32mx/4.8.3/../../../../pic32mx/lib\libc.a(ctype.o)
                0x9d054a70                _ctype

.text.general_exception
                0x9d054b74       0xdc
 .text.general_exception
                0x9d054b74       0xdc c:/program files (x86)/microchip/xc32/v1.44/bin/bin/../../lib/gcc/pic32mx/4.8.3/../../../../pic32mx/lib\libpic32.a(general-exception.o)
                0x9d054b74                _general_exception_context

.text._mon_putc
                0x9d054c50       0xd4
 .text._mon_putc
                0x9d054c50       0xd4 c:/program files (x86)/microchip/xc32/v1.44/bin/bin/../../lib/gcc/pic32mx/4.8.3/../../../../pic32mx/lib\libpic32.a(_mon_putc.o)
                0x9d054c50                _mon_putc

.rodata         0x9d054d28       0xd0
 .rodata        0x9d054d28       0xd0 c:/program files (x86)/microchip/xc32/v1.44/bin/bin/../../lib/gcc/pic32mx/4.8.3/../../../../pic32mx/lib\libc.a(doprnt_cdnopuxX.eo)

.text           0x9d054df8      0x14c
 .text          0x9d054df8       0xa8 c:/program files (x86)/microchip/xc32/v1.44/bin/bin/../../lib/gcc/pic32mx/4.8.3/../../../../pic32mx/lib\libpic32.a(memset.o)
                0x9d054df8                memset
 .text          0x9d054ea0       0xa4 build/default/production/_ext/1819808422/int_set_ebase_vs_lib.o
                0x9d054ea0                INTSetEBASEAndVectorSpacing

.text.write     0x9d054f44       0x9c
 .text.write    0x9d054f44       0x9c c:/program files (x86)/microchip/xc32/v1.44/bin/bin/../../lib/gcc/pic32mx/4.8.3/../../../../pic32mx/lib\libpic32.a(write.o)
                0x9d054f44                write

.text           0x9d054fe0      0x12c
 .text          0x9d054fe0       0x98 c:/program files (x86)/microchip/xc32/v1.44/bin/bin/../../lib/gcc/pic32mx/4.8.3/../../../../pic32mx/lib\libpic32.a(memcmp.o)
                0x9d054fe0                memcmp
 .text          0x9d055078       0x94 build/default/production/_ext/1819808422/int_set_ebase_lib.o
                0x9d055078                INTSetEBASE

.text           0x9d05510c      0x10c
 .text          0x9d05510c       0x94 build/default/production/_ext/1819808422/int_set_vector_spacing_lib.o
                0x9d05510c                INTSetVectorSpacing
 .text          0x9d0551a0       0x78 build/default/production/_ext/1986190483/pcache.o
                0x9d0551a0                CheKseg0CacheOff
                0x9d0551dc                CheKseg0CacheOn

.text           0x9d055218       0xc4
 .text          0x9d055218       0x6c build/default/production/_ext/1819808422/int_configure_system_lib.o
                0x9d055218                INTConfigureSystem
 .text          0x9d055284       0x58 build/default/production/_ext/1819808422/int_enable_mv_int_lib.o
                0x9d055284                INTEnableSystemMultiVectoredInt

.text           0x9d0552dc       0x58
 .text          0x9d0552dc       0x58 build/default/production/_ext/1819808422/int_enable_sv_int_lib.o
                0x9d0552dc                INTEnableSystemSingleVectoredInt

.text.main_entry
                0x9d055334       0x54
 .text.main_entry
                0x9d055334       0x54 c:/program files (x86)/microchip/xc32/v1.44/bin/bin/../../lib/gcc/pic32mx/4.8.3/../../../../pic32mx/lib/./proc/32MX795F512L/crt0_mips32r2.o
                0x9d055368                __crt0_exit

.rodata         0x9d055388       0x4c
 .rodata        0x9d055388       0x4c build/default/production/_ext/449926602/ble_manager.o

.text._bootstrap_exception_handler
                0x9d0553d4       0x48
 .text._bootstrap_exception_handler
                0x9d0553d4       0x48 c:/program files (x86)/microchip/xc32/v1.44/bin/bin/../../lib/gcc/pic32mx/4.8.3/../../../../pic32mx/lib\libpic32.a(default-bootstrap-exception-handler.o)
                0x9d0553d4                _bootstrap_exception_handler

.text._general_exception_handler
                0x9d05541c       0x48
 .text._general_exception_handler
                0x9d05541c       0x48 c:/program files (x86)/microchip/xc32/v1.44/bin/bin/../../lib/gcc/pic32mx/4.8.3/../../../../pic32mx/lib\libpic32.a(default-general-exception-handler.o)
                0x9d05541c                _general_exception_handler

.vector_default
                0x9d055464       0x48
 .vector_default
                0x9d055464       0x48 c:/program files (x86)/microchip/xc32/v1.44/bin/bin/../../lib/gcc/pic32mx/4.8.3/../../../../pic32mx/lib\libpic32.a(defaultinterrupt.o)
                0x9d055464                _DefaultInterrupt

.text           0x9d0554ac       0x44
 .text          0x9d0554ac       0x44 c:/program files (x86)/microchip/xc32/v1.44/bin/bin/../../lib/gcc/pic32mx/4.8.3/../../../../pic32mx/lib\pic32_software_reset.o
                0x9d0554ac                __pic32_software_reset

.text._printf_cdnopuxX
                0x9d0554f0       0x40
 .text._printf_cdnopuxX
                0x9d0554f0       0x40 c:/program files (x86)/microchip/xc32/v1.44/bin/bin/../../lib/gcc/pic32mx/4.8.3/../../../../pic32mx/lib\libc.a(printf_cdnopuxX.eo)
                0x9d0554f0                _printf_cdnopuxX

.text           0x9d055530       0x78
 .text          0x9d055530       0x3c build/default/production/_ext/1819808422/clear_core_sw0_leg_lib.o
                0x9d055530                ClearCoreSW0
 .text          0x9d05556c       0x3c build/default/production/_ext/1819808422/clear_core_sw0_lib.o
                0x9d05556c                CoreClearSoftwareInterrupt0

.text           0x9d0555a8       0x78
 .text          0x9d0555a8       0x3c build/default/production/_ext/1819808422/clear_core_sw1_leg_lib.o
                0x9d0555a8                ClearCoreSW1
 .text          0x9d0555e4       0x3c build/default/production/_ext/1819808422/clear_core_sw1_lib.o
                0x9d0555e4                CoreClearSoftwareInterrupt1

.text           0x9d055620       0x78
 .text          0x9d055620       0x3c build/default/production/_ext/1819808422/int_restore_interrupts_lib.o
                0x9d055620                INTRestoreInterrupts
 .text          0x9d05565c       0x3c build/default/production/_ext/1819808422/set_core_sw0_leg_lib.o
                0x9d05565c                SetCoreSW0

.text           0x9d055698       0x78
 .text          0x9d055698       0x3c build/default/production/_ext/1819808422/set_core_sw0_lib.o
                0x9d055698                CoreSetSoftwareInterrupt0
 .text          0x9d0556d4       0x3c build/default/production/_ext/1819808422/set_core_sw1_leg_lib.o
                0x9d0556d4                SetCoreSW1

.text           0x9d055710       0x68
 .text          0x9d055710       0x3c build/default/production/_ext/1819808422/set_core_sw1_lib.o
                0x9d055710                CoreSetSoftwareInterrupt1
 .text          0x9d05574c       0x2c build/default/production/_ext/1819808422/int_disable_interrupts_lib.o
                0x9d05574c                INTDisableInterrupts

.text           0x9d055778       0x2c
 .text          0x9d055778       0x2c build/default/production/_ext/1819808422/int_enable_interrupts_lib.o
                0x9d055778                INTEnableInterrupts

.rodata         0x9d0557a4       0x18
 .rodata        0x9d0557a4       0x18 build/default/production/_ext/2046243727/uart_lib.o
                0x9d0557a4                uartReg

.text           0x9d0557bc       0x18
 .text          0x9d0557bc       0x18 c:/program files (x86)/microchip/xc32/v1.44/bin/bin/../../lib/gcc/pic32mx/4.8.3/../../../../pic32mx/lib\libpic32.a(default-nmi-handler.o)
                0x9d0557bc                _nmi_handler

.text._on_reset
                0x9d0557d4        0x8
 .text._on_reset
                0x9d0557d4        0x8 c:/program files (x86)/microchip/xc32/v1.44/bin/bin/../../lib/gcc/pic32mx/4.8.3/../../../../pic32mx/lib\libpic32.a(default-on-reset.o)
                0x9d0557d4                _on_reset

.text._on_bootstrap
                0x9d0557dc        0x8
 .text._on_bootstrap
                0x9d0557dc        0x8 c:/program files (x86)/microchip/xc32/v1.44/bin/bin/../../lib/gcc/pic32mx/4.8.3/../../../../pic32mx/lib\libpic32.a(default-on-bootstrap.o)
                0x9d0557dc                _on_bootstrap

.text           0x00000000        0x0
 .text          0x00000000        0x0 c:/program files (x86)/microchip/xc32/v1.44/bin/bin/../../lib/gcc/pic32mx/4.8.3/../../../../pic32mx/lib\libpic32.a(xc32_uart.o)

.text           0x00000000        0x0
 .text          0x00000000        0x0 c:/program files (x86)/microchip/xc32/v1.44/bin/bin/../../lib/gcc/pic32mx/4.8.3/../../../../pic32mx/lib\libpic32.a(_mon_putc.o)

.text           0x00000000        0x0
 .text          0x00000000        0x0 c:/program files (x86)/microchip/xc32/v1.44/bin/bin/../../lib/gcc/pic32mx/4.8.3/../../../../pic32mx/lib\libpic32.a(write.o)

.text           0x00000000        0x0
 .text          0x00000000        0x0 c:/program files (x86)/microchip/xc32/v1.44/bin/bin/../../lib/gcc/pic32mx/4.8.3/../../../../pic32mx/lib\libc.a(_flsbuf_simple.o)

.text           0x00000000        0x0
 .text          0x00000000        0x0 c:/program files (x86)/microchip/xc32/v1.44/bin/bin/../../lib/gcc/pic32mx/4.8.3/../../../../pic32mx/lib\libc.a(ctype.o)

.text           0x00000000        0x0
 .text          0x00000000        0x0 c:/program files (x86)/microchip/xc32/v1.44/bin/bin/../../lib/gcc/pic32mx/4.8.3/../../../../pic32mx/lib\libc.a(_fputc_simple.o)

.text           0x00000000        0x0
 .text          0x00000000        0x0 c:/program files (x86)/microchip/xc32/v1.44/bin/bin/../../lib/gcc/pic32mx/4.8.3/../../../../pic32mx/lib\libc.a(doprnt_cdnopuxX.eo)

.text           0x00000000        0x0
 .text          0x00000000        0x0 c:/program files (x86)/microchip/xc32/v1.44/bin/bin/../../lib/gcc/pic32mx/4.8.3/../../../../pic32mx/lib\libc.a(_iob.o)

.text           0x00000000        0x0
 .text          0x00000000        0x0 c:/program files (x86)/microchip/xc32/v1.44/bin/bin/../../lib/gcc/pic32mx/4.8.3/../../../../pic32mx/lib\libc.a(printf_cdnopuxX.eo)

.text           0x00000000        0x0
 .text          0x00000000        0x0 c:/program files (x86)/microchip/xc32/v1.44/bin/bin/../../lib/gcc/pic32mx/4.8.3/../../../../pic32mx/lib\libpic32.a(defaultinterrupt.o)

.text           0x00000000        0x0
 .text          0x00000000        0x0 c:/program files (x86)/microchip/xc32/v1.44/bin/bin/../../lib/gcc/pic32mx/4.8.3/../../../../pic32mx/lib\libpic32.a(default-general-exception-handler.o)

.text           0x00000000        0x0
 .text          0x00000000        0x0 c:/program files (x86)/microchip/xc32/v1.44/bin/bin/../../lib/gcc/pic32mx/4.8.3/../../../../pic32mx/lib\libpic32.a(vector51.o)

.text           0x00000000        0x0
 .text          0x00000000        0x0 c:/program files (x86)/microchip/xc32/v1.44/bin/bin/../../lib/gcc/pic32mx/4.8.3/../../../../pic32mx/lib\libpic32.a(vector50.o)

.text           0x00000000        0x0
 .text          0x00000000        0x0 c:/program files (x86)/microchip/xc32/v1.44/bin/bin/../../lib/gcc/pic32mx/4.8.3/../../../../pic32mx/lib\libpic32.a(vector49.o)

.text           0x00000000        0x0
 .text          0x00000000        0x0 c:/program files (x86)/microchip/xc32/v1.44/bin/bin/../../lib/gcc/pic32mx/4.8.3/../../../../pic32mx/lib\libpic32.a(vector48.o)

.text           0x00000000        0x0
 .text          0x00000000        0x0 c:/program files (x86)/microchip/xc32/v1.44/bin/bin/../../lib/gcc/pic32mx/4.8.3/../../../../pic32mx/lib\libpic32.a(vector47.o)

.text           0x00000000        0x0
 .text          0x00000000        0x0 c:/program files (x86)/microchip/xc32/v1.44/bin/bin/../../lib/gcc/pic32mx/4.8.3/../../../../pic32mx/lib\libpic32.a(vector46.o)

.text           0x00000000        0x0
 .text          0x00000000        0x0 c:/program files (x86)/microchip/xc32/v1.44/bin/bin/../../lib/gcc/pic32mx/4.8.3/../../../../pic32mx/lib\libpic32.a(vector45.o)

.text           0x00000000        0x0
 .text          0x00000000        0x0 c:/program files (x86)/microchip/xc32/v1.44/bin/bin/../../lib/gcc/pic32mx/4.8.3/../../../../pic32mx/lib\libpic32.a(vector44.o)

.text           0x00000000        0x0
 .text          0x00000000        0x0 c:/program files (x86)/microchip/xc32/v1.44/bin/bin/../../lib/gcc/pic32mx/4.8.3/../../../../pic32mx/lib\libpic32.a(vector43.o)

.text           0x00000000        0x0
 .text          0x00000000        0x0 c:/program files (x86)/microchip/xc32/v1.44/bin/bin/../../lib/gcc/pic32mx/4.8.3/../../../../pic32mx/lib\libpic32.a(vector42.o)

.text           0x00000000        0x0
 .text          0x00000000        0x0 c:/program files (x86)/microchip/xc32/v1.44/bin/bin/../../lib/gcc/pic32mx/4.8.3/../../../../pic32mx/lib\libpic32.a(vector41.o)

.text           0x00000000        0x0
 .text          0x00000000        0x0 c:/program files (x86)/microchip/xc32/v1.44/bin/bin/../../lib/gcc/pic32mx/4.8.3/../../../../pic32mx/lib\libpic32.a(vector40.o)

.text           0x00000000        0x0
 .text          0x00000000        0x0 c:/program files (x86)/microchip/xc32/v1.44/bin/bin/../../lib/gcc/pic32mx/4.8.3/../../../../pic32mx/lib\libpic32.a(vector39.o)

.text           0x00000000        0x0
 .text          0x00000000        0x0 c:/program files (x86)/microchip/xc32/v1.44/bin/bin/../../lib/gcc/pic32mx/4.8.3/../../../../pic32mx/lib\libpic32.a(vector38.o)

.text           0x00000000        0x0
 .text          0x00000000        0x0 c:/program files (x86)/microchip/xc32/v1.44/bin/bin/../../lib/gcc/pic32mx/4.8.3/../../../../pic32mx/lib\libpic32.a(vector37.o)

.text           0x00000000        0x0
 .text          0x00000000        0x0 c:/program files (x86)/microchip/xc32/v1.44/bin/bin/../../lib/gcc/pic32mx/4.8.3/../../../../pic32mx/lib\libpic32.a(vector36.o)

.text           0x00000000        0x0
 .text          0x00000000        0x0 c:/program files (x86)/microchip/xc32/v1.44/bin/bin/../../lib/gcc/pic32mx/4.8.3/../../../../pic32mx/lib\libpic32.a(vector35.o)

.text           0x00000000        0x0
 .text          0x00000000        0x0 c:/program files (x86)/microchip/xc32/v1.44/bin/bin/../../lib/gcc/pic32mx/4.8.3/../../../../pic32mx/lib\libpic32.a(vector34.o)

.text           0x00000000        0x0
 .text          0x00000000        0x0 c:/program files (x86)/microchip/xc32/v1.44/bin/bin/../../lib/gcc/pic32mx/4.8.3/../../../../pic32mx/lib\libpic32.a(vector33.o)

.text           0x00000000        0x0
 .text          0x00000000        0x0 c:/program files (x86)/microchip/xc32/v1.44/bin/bin/../../lib/gcc/pic32mx/4.8.3/../../../../pic32mx/lib\libpic32.a(vector31.o)

.text           0x00000000        0x0
 .text          0x00000000        0x0 c:/program files (x86)/microchip/xc32/v1.44/bin/bin/../../lib/gcc/pic32mx/4.8.3/../../../../pic32mx/lib\libpic32.a(vector30.o)

.text           0x00000000        0x0
 .text          0x00000000        0x0 c:/program files (x86)/microchip/xc32/v1.44/bin/bin/../../lib/gcc/pic32mx/4.8.3/../../../../pic32mx/lib\libpic32.a(vector29.o)

.text           0x00000000        0x0
 .text          0x00000000        0x0 c:/program files (x86)/microchip/xc32/v1.44/bin/bin/../../lib/gcc/pic32mx/4.8.3/../../../../pic32mx/lib\libpic32.a(vector28.o)

.text           0x00000000        0x0
 .text          0x00000000        0x0 c:/program files (x86)/microchip/xc32/v1.44/bin/bin/../../lib/gcc/pic32mx/4.8.3/../../../../pic32mx/lib\libpic32.a(vector27.o)

.text           0x00000000        0x0
 .text          0x00000000        0x0 c:/program files (x86)/microchip/xc32/v1.44/bin/bin/../../lib/gcc/pic32mx/4.8.3/../../../../pic32mx/lib\libpic32.a(vector26.o)

.text           0x00000000        0x0
 .text          0x00000000        0x0 c:/program files (x86)/microchip/xc32/v1.44/bin/bin/../../lib/gcc/pic32mx/4.8.3/../../../../pic32mx/lib\libpic32.a(vector25.o)

.text           0x00000000        0x0
 .text          0x00000000        0x0 c:/program files (x86)/microchip/xc32/v1.44/bin/bin/../../lib/gcc/pic32mx/4.8.3/../../../../pic32mx/lib\libpic32.a(vector23.o)

.text           0x00000000        0x0
 .text          0x00000000        0x0 c:/program files (x86)/microchip/xc32/v1.44/bin/bin/../../lib/gcc/pic32mx/4.8.3/../../../../pic32mx/lib\libpic32.a(vector22.o)

.text           0x00000000        0x0
 .text          0x00000000        0x0 c:/program files (x86)/microchip/xc32/v1.44/bin/bin/../../lib/gcc/pic32mx/4.8.3/../../../../pic32mx/lib\libpic32.a(vector21.o)

.text           0x00000000        0x0
 .text          0x00000000        0x0 c:/program files (x86)/microchip/xc32/v1.44/bin/bin/../../lib/gcc/pic32mx/4.8.3/../../../../pic32mx/lib\libpic32.a(vector20.o)

.text           0x00000000        0x0
 .text          0x00000000        0x0 c:/program files (x86)/microchip/xc32/v1.44/bin/bin/../../lib/gcc/pic32mx/4.8.3/../../../../pic32mx/lib\libpic32.a(vector19.o)

.text           0x00000000        0x0
 .text          0x00000000        0x0 c:/program files (x86)/microchip/xc32/v1.44/bin/bin/../../lib/gcc/pic32mx/4.8.3/../../../../pic32mx/lib\libpic32.a(vector18.o)

.text           0x00000000        0x0
 .text          0x00000000        0x0 c:/program files (x86)/microchip/xc32/v1.44/bin/bin/../../lib/gcc/pic32mx/4.8.3/../../../../pic32mx/lib\libpic32.a(vector17.o)

.text           0x00000000        0x0
 .text          0x00000000        0x0 c:/program files (x86)/microchip/xc32/v1.44/bin/bin/../../lib/gcc/pic32mx/4.8.3/../../../../pic32mx/lib\libpic32.a(vector16.o)

.text           0x00000000        0x0
 .text          0x00000000        0x0 c:/program files (x86)/microchip/xc32/v1.44/bin/bin/../../lib/gcc/pic32mx/4.8.3/../../../../pic32mx/lib\libpic32.a(vector15.o)

.text           0x00000000        0x0
 .text          0x00000000        0x0 c:/program files (x86)/microchip/xc32/v1.44/bin/bin/../../lib/gcc/pic32mx/4.8.3/../../../../pic32mx/lib\libpic32.a(vector14.o)

.text           0x00000000        0x0
 .text          0x00000000        0x0 c:/program files (x86)/microchip/xc32/v1.44/bin/bin/../../lib/gcc/pic32mx/4.8.3/../../../../pic32mx/lib\libpic32.a(vector13.o)

.text           0x00000000        0x0
 .text          0x00000000        0x0 c:/program files (x86)/microchip/xc32/v1.44/bin/bin/../../lib/gcc/pic32mx/4.8.3/../../../../pic32mx/lib\libpic32.a(vector12.o)

.text           0x00000000        0x0
 .text          0x00000000        0x0 c:/program files (x86)/microchip/xc32/v1.44/bin/bin/../../lib/gcc/pic32mx/4.8.3/../../../../pic32mx/lib\libpic32.a(vector11.o)

.text           0x00000000        0x0
 .text          0x00000000        0x0 c:/program files (x86)/microchip/xc32/v1.44/bin/bin/../../lib/gcc/pic32mx/4.8.3/../../../../pic32mx/lib\libpic32.a(vector10.o)

.text           0x00000000        0x0
 .text          0x00000000        0x0 c:/program files (x86)/microchip/xc32/v1.44/bin/bin/../../lib/gcc/pic32mx/4.8.3/../../../../pic32mx/lib\libpic32.a(vector9.o)

.text           0x00000000        0x0
 .text          0x00000000        0x0 c:/program files (x86)/microchip/xc32/v1.44/bin/bin/../../lib/gcc/pic32mx/4.8.3/../../../../pic32mx/lib\libpic32.a(vector8.o)

.text           0x00000000        0x0
 .text          0x00000000        0x0 c:/program files (x86)/microchip/xc32/v1.44/bin/bin/../../lib/gcc/pic32mx/4.8.3/../../../../pic32mx/lib\libpic32.a(vector7.o)

.text           0x00000000        0x0
 .text          0x00000000        0x0 c:/program files (x86)/microchip/xc32/v1.44/bin/bin/../../lib/gcc/pic32mx/4.8.3/../../../../pic32mx/lib\libpic32.a(vector6.o)

.text           0x00000000        0x0
 .text          0x00000000        0x0 c:/program files (x86)/microchip/xc32/v1.44/bin/bin/../../lib/gcc/pic32mx/4.8.3/../../../../pic32mx/lib\libpic32.a(vector5.o)

.text           0x00000000        0x0
 .text          0x00000000        0x0 c:/program files (x86)/microchip/xc32/v1.44/bin/bin/../../lib/gcc/pic32mx/4.8.3/../../../../pic32mx/lib\libpic32.a(vector3.o)

.text           0x00000000        0x0
 .text          0x00000000        0x0 c:/program files (x86)/microchip/xc32/v1.44/bin/bin/../../lib/gcc/pic32mx/4.8.3/../../../../pic32mx/lib\libpic32.a(vector2.o)

.text           0x00000000        0x0
 .text          0x00000000        0x0 c:/program files (x86)/microchip/xc32/v1.44/bin/bin/../../lib/gcc/pic32mx/4.8.3/../../../../pic32mx/lib\libpic32.a(vector1.o)

.text           0x00000000        0x0
 .text          0x00000000        0x0 c:/program files (x86)/microchip/xc32/v1.44/bin/bin/../../lib/gcc/pic32mx/4.8.3/../../../../pic32mx/lib\libpic32.a(vector0.o)

.text           0x00000000        0x0
 .text          0x00000000        0x0 c:/program files (x86)/microchip/xc32/v1.44/bin/bin/../../lib/gcc/pic32mx/4.8.3/../../../../pic32mx/lib\libpic32.a(general-exception.o)

.text           0x00000000        0x0
 .text          0x00000000        0x0 c:/program files (x86)/microchip/xc32/v1.44/bin/bin/../../lib/gcc/pic32mx/4.8.3/../../../../pic32mx/lib\libpic32.a(default-on-bootstrap.o)

.text           0x00000000        0x0
 .text          0x00000000        0x0 c:/program files (x86)/microchip/xc32/v1.44/bin/bin/../../lib/gcc/pic32mx/4.8.3/../../../../pic32mx/lib\libpic32.a(default-on-reset.o)

.text           0x00000000        0x0
 .text          0x00000000        0x0 c:/program files (x86)/microchip/xc32/v1.44/bin/bin/../../lib/gcc/pic32mx/4.8.3/../../../../pic32mx/lib\libpic32.a(default-bootstrap-exception-handler.o)

.text           0x00000000        0x0
 .text          0x00000000        0x0 c:/program files (x86)/microchip/xc32/v1.44/bin/bin/../../lib/gcc/pic32mx/4.8.3/../../../../pic32mx/lib/./proc/32MX795F512L\processor.o

.text           0x00000000        0x0
 .text          0x00000000        0x0 c:/program files (x86)/microchip/xc32/v1.44/bin/bin/../../lib/gcc/pic32mx/4.8.3/../../../../pic32mx/lib/./proc/32MX795F512L\default_isr_vectors.o

.text           0x00000000        0x0
 .text          0x00000000        0x0 build/default/production/_ext/1819808422/int_tbl_5xx_6xx_7xx_lib.o

.text           0x00000000        0x0
 .text          0x00000000        0x0 c:/program files (x86)/microchip/xc32/v1.44/bin/bin/../../lib/gcc/pic32mx/4.8.3/../../../../pic32mx/lib\debug-exception-return.o

.text           0x00000000        0x0
 .text          0x00000000        0x0 c:/program files (x86)/microchip/xc32/v1.44/bin/bin/../../lib/gcc/pic32mx/4.8.3/../../../../pic32mx/lib/./proc/32MX795F512L/crt0_mips32r2.o
